	.cpu cortex-m4
	.arch armv7e-m
	.fpu softvfp
	.eabi_attribute 20, 1
	.eabi_attribute 21, 1
	.eabi_attribute 23, 3
	.eabi_attribute 24, 1
	.eabi_attribute 25, 1
	.eabi_attribute 26, 1
	.eabi_attribute 30, 6
	.eabi_attribute 34, 1
	.eabi_attribute 18, 4
	.file	"branch.c"
	.text
.Ltext0:
	.cfi_sections	.debug_frame
	.file 1 "branch.c"
	.section	.rodata
	.align	2
.LC0:
	.ascii	"Hit the D case\000"
	.align	2
.LC1:
	.ascii	"Hit the E case\000"
	.align	2
.LC2:
	.ascii	"Hit the A case \000"
	.align	2
.LC3:
	.ascii	"Hit the D case \000"
	.align	2
.LC4:
	.ascii	"Hit the E case \000"
	.align	2
.LC5:
	.ascii	"Hit the F case \000"
	.align	2
.LC6:
	.ascii	"Congrats you got to the end :)\000"
	.text
	.align	1
	.global	branch_test
	.syntax unified
	.thumb
	.thumb_func
	.type	branch_test, %function
branch_test:
.LFB3:
	.loc 1 5 49
	.cfi_startproc
	@ args = 0, pretend = 0, frame = 8
	@ frame_needed = 1, uses_anonymous_args = 0
	push	{r7, lr}
	.cfi_def_cfa_offset 8
	.cfi_offset 7, -8
	.cfi_offset 14, -4
	sub	sp, sp, #8
	.cfi_def_cfa_offset 16
	add	r7, sp, #0
	.cfi_def_cfa_register 7
	str	r0, [r7, #4]
	mov	r3, r1
	strh	r3, [r7, #2]	@ movhi
	.loc 1 7 9
	ldr	r3, [r7, #4]
	ldrsb	r3, [r3]
	.loc 1 7 4
	cmp	r3, #68
	bne	.L2
	.loc 1 8 3
	ldr	r0, .L4
	bl	puts
	.loc 1 9 10
	ldr	r3, [r7, #4]
	adds	r3, r3, #1
	ldrsb	r3, [r3]
	.loc 1 9 5
	cmp	r3, #69
	bne	.L2
	.loc 1 10 4
	ldr	r0, .L4+4
	bl	puts
	.loc 1 11 11
	ldr	r3, [r7, #4]
	adds	r3, r3, #2
	ldrsb	r3, [r3]
	.loc 1 11 6
	cmp	r3, #65
	bne	.L2
	.loc 1 12 5
	ldr	r0, .L4+8
	bl	puts
	.loc 1 13 12
	ldr	r3, [r7, #4]
	adds	r3, r3, #3
	ldrsb	r3, [r3]
	.loc 1 13 7
	cmp	r3, #68
	bne	.L2
	.loc 1 14 6
	ldr	r0, .L4+12
	bl	puts
	.loc 1 15 14
	ldr	r3, [r7, #4]
	adds	r3, r3, #4
	ldrsb	r3, [r3]
	.loc 1 15 9
	cmp	r3, #66
	bne	.L2
	.loc 1 16 7
	ldr	r0, .L4
	bl	puts
	.loc 1 17 14
	ldr	r3, [r7, #4]
	adds	r3, r3, #5
	ldrsb	r3, [r3]
	.loc 1 17 9
	cmp	r3, #69
	bne	.L2
	.loc 1 18 8
	ldr	r0, .L4+4
	bl	puts
	.loc 1 19 15
	ldr	r3, [r7, #4]
	adds	r3, r3, #6
	ldrsb	r3, [r3]
	.loc 1 19 10
	cmp	r3, #69
	bne	.L2
	.loc 1 20 9
	ldr	r0, .L4+16
	bl	puts
	.loc 1 21 16
	ldr	r3, [r7, #4]
	adds	r3, r3, #7
	ldrsb	r3, [r3]
	.loc 1 21 11
	cmp	r3, #70
	bne	.L2
	.loc 1 22 10
	ldr	r0, .L4+20
	bl	puts
	.loc 1 23 10
	ldr	r0, .L4+24
	bl	puts
.L2:
	.loc 1 32 9
	movs	r3, #0
	.loc 1 33 1
	mov	r0, r3
	adds	r7, r7, #8
	.cfi_def_cfa_offset 8
	mov	sp, r7
	.cfi_def_cfa_register 13
	@ sp needed
	pop	{r7, pc}
.L5:
	.align	2
.L4:
	.word	.LC0
	.word	.LC1
	.word	.LC2
	.word	.LC3
	.word	.LC4
	.word	.LC5
	.word	.LC6
	.cfi_endproc
.LFE3:
	.size	branch_test, .-branch_test
.Letext0:
	.file 2 "/home/santiago/Research/microfuzz/toolchains/arm/arm-none-eabi/include/machine/_default_types.h"
	.file 3 "/home/santiago/Research/microfuzz/toolchains/arm/arm-none-eabi/include/sys/_stdint.h"