
microfuzz.elf:     file format elf32-littlearm

Sections:
Idx Name          Size      VMA       LMA       File off  Algn
  0 .isr_vector   000001c4  08000000  08000000  00001000  2**0
                  CONTENTS, ALLOC, LOAD, READONLY, DATA
  1 .text         000023b8  080001d0  080001d0  000011d0  2**4
                  CONTENTS, ALLOC, LOAD, READONLY, CODE
  2 .rodata       00000118  08002588  08002588  00003588  2**0
                  CONTENTS, ALLOC, LOAD, READONLY, DATA
  3 .ARM.extab    00000000  080026a0  080026a0  00004068  2**0
                  CONTENTS
  4 .ARM          00000008  080026a0  080026a0  000036a0  2**2
                  CONTENTS, ALLOC, LOAD, READONLY, DATA
  5 .preinit_array 00000000  080026a8  080026a8  00004068  2**0
                  CONTENTS, ALLOC, LOAD, DATA
  6 .init_array   00000004  080026a8  080026a8  000036a8  2**2
                  CONTENTS, ALLOC, LOAD, READONLY, DATA
  7 .fini_array   00000004  080026ac  080026ac  000036ac  2**2
                  CONTENTS, ALLOC, LOAD, READONLY, DATA
  8 .data         00000068  20000000  080026b0  00004000  2**2
                  CONTENTS, ALLOC, LOAD, DATA
  9 .bss          00000310  20000068  08002718  00004068  2**2
                  ALLOC
 10 ._user_heap_stack 00000600  20000378  08002718  00004378  2**0
                  ALLOC
 11 .ARM.attributes 00000030  00000000  00000000  00004068  2**0
                  CONTENTS, READONLY
 12 .comment      00000043  00000000  00000000  00004098  2**0
                  CONTENTS, READONLY
 13 .debug_frame  00000a94  00000000  00000000  000040dc  2**2
                  CONTENTS, READONLY, DEBUGGING, OCTETS

Disassembly of section .text:

080001d0 <__do_global_dtors_aux>:
 80001d0:	b510      	push	{r4, lr}
 80001d2:	4c05      	ldr	r4, [pc, #20]	@ (80001e8 <__do_global_dtors_aux+0x18>)
 80001d4:	7823      	ldrb	r3, [r4, #0]
 80001d6:	b933      	cbnz	r3, 80001e6 <__do_global_dtors_aux+0x16>
 80001d8:	4b04      	ldr	r3, [pc, #16]	@ (80001ec <__do_global_dtors_aux+0x1c>)
 80001da:	b113      	cbz	r3, 80001e2 <__do_global_dtors_aux+0x12>
 80001dc:	4804      	ldr	r0, [pc, #16]	@ (80001f0 <__do_global_dtors_aux+0x20>)
 80001de:	f3af 8000 	nop.w
 80001e2:	2301      	movs	r3, #1
 80001e4:	7023      	strb	r3, [r4, #0]
 80001e6:	bd10      	pop	{r4, pc}
 80001e8:	20000068 	.word	0x20000068
 80001ec:	00000000 	.word	0x00000000
 80001f0:	08002570 	.word	0x08002570

080001f4 <frame_dummy>:
 80001f4:	b508      	push	{r3, lr}
 80001f6:	4b03      	ldr	r3, [pc, #12]	@ (8000204 <frame_dummy+0x10>)
 80001f8:	b11b      	cbz	r3, 8000202 <frame_dummy+0xe>
 80001fa:	4903      	ldr	r1, [pc, #12]	@ (8000208 <frame_dummy+0x14>)
 80001fc:	4803      	ldr	r0, [pc, #12]	@ (800020c <frame_dummy+0x18>)
 80001fe:	f3af 8000 	nop.w
 8000202:	bd08      	pop	{r3, pc}
 8000204:	00000000 	.word	0x00000000
 8000208:	2000006c 	.word	0x2000006c
 800020c:	08002570 	.word	0x08002570

08000210 <_coverage_trace>:
 8000210:	b500      	push	{lr}
 8000212:	b401      	push	{r0}
 8000214:	b402      	push	{r1}
 8000216:	b404      	push	{r2}
 8000218:	b408      	push	{r3}
 800021a:	b410      	push	{r4}
 800021c:	b420      	push	{r5}
 800021e:	b440      	push	{r6}
 8000220:	b480      	push	{r7}
 8000222:	b083      	sub	sp, #12
 8000224:	4670      	mov	r0, lr
 8000226:	3805      	subs	r0, #5
 8000228:	46c0      	nop			@ (mov r8, r8)
 800022a:	21bf      	movs	r1, #191	@ 0xbf
 800022c:	0209      	lsls	r1, r1, #8
 800022e:	8001      	strh	r1, [r0, #0]
 8000230:	3002      	adds	r0, #2
 8000232:	8001      	strh	r1, [r0, #0]
 8000234:	490a      	ldr	r1, [pc, #40]	@ (8000260 <_coverage_trace+0x50>)
 8000236:	680a      	ldr	r2, [r1, #0]
 8000238:	1a80      	subs	r0, r0, r2
 800023a:	4a0a      	ldr	r2, [pc, #40]	@ (8000264 <_coverage_trace+0x54>)
 800023c:	6813      	ldr	r3, [r2, #0]
 800023e:	6018      	str	r0, [r3, #0]
 8000240:	3301      	adds	r3, #1
 8000242:	6013      	str	r3, [r2, #0]
 8000244:	4c08      	ldr	r4, [pc, #32]	@ (8000268 <_coverage_trace+0x58>)
 8000246:	6823      	ldr	r3, [r4, #0]
 8000248:	3301      	adds	r3, #1
 800024a:	6023      	str	r3, [r4, #0]
 800024c:	b003      	add	sp, #12
 800024e:	bc80      	pop	{r7}
 8000250:	bc40      	pop	{r6}
 8000252:	bc20      	pop	{r5}
 8000254:	bc10      	pop	{r4}
 8000256:	bc08      	pop	{r3}
 8000258:	bc04      	pop	{r2}
 800025a:	bc02      	pop	{r1}
 800025c:	bc01      	pop	{r0}
 800025e:	bd00      	pop	{pc}
 8000260:	2000008c 	.word	0x2000008c
 8000264:	20000090 	.word	0x20000090
 8000268:	20000088 	.word	0x20000088
 800026c:	00000000 	.word	0x00000000

08000270 <memchr>:
 8000270:	f001 01ff 	and.w	r1, r1, #255	@ 0xff
 8000274:	2a10      	cmp	r2, #16
 8000276:	db2b      	blt.n	80002d0 <memchr+0x60>
 8000278:	f010 0f07 	tst.w	r0, #7
 800027c:	d008      	beq.n	8000290 <memchr+0x20>
 800027e:	f810 3b01 	ldrb.w	r3, [r0], #1
 8000282:	3a01      	subs	r2, #1
 8000284:	428b      	cmp	r3, r1
 8000286:	d02d      	beq.n	80002e4 <memchr+0x74>
 8000288:	f010 0f07 	tst.w	r0, #7
 800028c:	b342      	cbz	r2, 80002e0 <memchr+0x70>
 800028e:	d1f6      	bne.n	800027e <memchr+0xe>
 8000290:	b4f0      	push	{r4, r5, r6, r7}
 8000292:	ea41 2101 	orr.w	r1, r1, r1, lsl #8
 8000296:	ea41 4101 	orr.w	r1, r1, r1, lsl #16
 800029a:	f022 0407 	bic.w	r4, r2, #7
 800029e:	f07f 0700 	mvns.w	r7, #0
 80002a2:	2300      	movs	r3, #0
 80002a4:	e8f0 5602 	ldrd	r5, r6, [r0], #8
 80002a8:	3c08      	subs	r4, #8
 80002aa:	ea85 0501 	eor.w	r5, r5, r1
 80002ae:	ea86 0601 	eor.w	r6, r6, r1
 80002b2:	fa85 f547 	uadd8	r5, r5, r7
 80002b6:	faa3 f587 	sel	r5, r3, r7
 80002ba:	fa86 f647 	uadd8	r6, r6, r7
 80002be:	faa5 f687 	sel	r6, r5, r7
 80002c2:	b98e      	cbnz	r6, 80002e8 <memchr+0x78>
 80002c4:	d1ee      	bne.n	80002a4 <memchr+0x34>
 80002c6:	bcf0      	pop	{r4, r5, r6, r7}
 80002c8:	f001 01ff 	and.w	r1, r1, #255	@ 0xff
 80002cc:	f002 0207 	and.w	r2, r2, #7
 80002d0:	b132      	cbz	r2, 80002e0 <memchr+0x70>
 80002d2:	f810 3b01 	ldrb.w	r3, [r0], #1
 80002d6:	3a01      	subs	r2, #1
 80002d8:	ea83 0301 	eor.w	r3, r3, r1
 80002dc:	b113      	cbz	r3, 80002e4 <memchr+0x74>
 80002de:	d1f8      	bne.n	80002d2 <memchr+0x62>
 80002e0:	2000      	movs	r0, #0
 80002e2:	4770      	bx	lr
 80002e4:	3801      	subs	r0, #1
 80002e6:	4770      	bx	lr
 80002e8:	2d00      	cmp	r5, #0
 80002ea:	bf06      	itte	eq
 80002ec:	4635      	moveq	r5, r6
 80002ee:	3803      	subeq	r0, #3
 80002f0:	3807      	subne	r0, #7
 80002f2:	f015 0f01 	tst.w	r5, #1
 80002f6:	d107      	bne.n	8000308 <memchr+0x98>
 80002f8:	3001      	adds	r0, #1
 80002fa:	f415 7f80 	tst.w	r5, #256	@ 0x100
 80002fe:	bf02      	ittt	eq
 8000300:	3001      	addeq	r0, #1
 8000302:	f415 3fc0 	tsteq.w	r5, #98304	@ 0x18000
 8000306:	3001      	addeq	r0, #1
 8000308:	bcf0      	pop	{r4, r5, r6, r7}
 800030a:	3801      	subs	r0, #1
 800030c:	4770      	bx	lr
 800030e:	bf00      	nop

08000310 <__aeabi_uldivmod>:
 8000310:	b953      	cbnz	r3, 8000328 <__aeabi_uldivmod+0x18>
 8000312:	b94a      	cbnz	r2, 8000328 <__aeabi_uldivmod+0x18>
 8000314:	2900      	cmp	r1, #0
 8000316:	bf08      	it	eq
 8000318:	2800      	cmpeq	r0, #0
 800031a:	bf1c      	itt	ne
 800031c:	f04f 31ff 	movne.w	r1, #4294967295	@ 0xffffffff
 8000320:	f04f 30ff 	movne.w	r0, #4294967295	@ 0xffffffff
 8000324:	f000 b96a 	b.w	80005fc <__aeabi_idiv0>
 8000328:	f1ad 0c08 	sub.w	ip, sp, #8
 800032c:	e96d ce04 	strd	ip, lr, [sp, #-16]!
 8000330:	f000 f806 	bl	8000340 <__udivmoddi4>
 8000334:	f8dd e004 	ldr.w	lr, [sp, #4]
 8000338:	e9dd 2302 	ldrd	r2, r3, [sp, #8]
 800033c:	b004      	add	sp, #16
 800033e:	4770      	bx	lr

08000340 <__udivmoddi4>:
 8000340:	e92d 47f0 	stmdb	sp!, {r4, r5, r6, r7, r8, r9, sl, lr}
 8000344:	9d08      	ldr	r5, [sp, #32]
 8000346:	460c      	mov	r4, r1
 8000348:	2b00      	cmp	r3, #0
 800034a:	d14e      	bne.n	80003ea <__udivmoddi4+0xaa>
 800034c:	4694      	mov	ip, r2
 800034e:	458c      	cmp	ip, r1
 8000350:	4686      	mov	lr, r0
 8000352:	fab2 f282 	clz	r2, r2
 8000356:	d962      	bls.n	800041e <__udivmoddi4+0xde>
 8000358:	b14a      	cbz	r2, 800036e <__udivmoddi4+0x2e>
 800035a:	f1c2 0320 	rsb	r3, r2, #32
 800035e:	4091      	lsls	r1, r2
 8000360:	fa20 f303 	lsr.w	r3, r0, r3
 8000364:	fa0c fc02 	lsl.w	ip, ip, r2
 8000368:	4319      	orrs	r1, r3
 800036a:	fa00 fe02 	lsl.w	lr, r0, r2
 800036e:	ea4f 471c 	mov.w	r7, ip, lsr #16
 8000372:	fa1f f68c 	uxth.w	r6, ip
 8000376:	fbb1 f4f7 	udiv	r4, r1, r7
 800037a:	ea4f 431e 	mov.w	r3, lr, lsr #16
 800037e:	fb07 1114 	mls	r1, r7, r4, r1
 8000382:	ea43 4301 	orr.w	r3, r3, r1, lsl #16
 8000386:	fb04 f106 	mul.w	r1, r4, r6
 800038a:	4299      	cmp	r1, r3
 800038c:	d90a      	bls.n	80003a4 <__udivmoddi4+0x64>
 800038e:	eb1c 0303 	adds.w	r3, ip, r3
 8000392:	f104 30ff 	add.w	r0, r4, #4294967295	@ 0xffffffff
 8000396:	f080 8112 	bcs.w	80005be <__udivmoddi4+0x27e>
 800039a:	4299      	cmp	r1, r3
 800039c:	f240 810f 	bls.w	80005be <__udivmoddi4+0x27e>
 80003a0:	3c02      	subs	r4, #2
 80003a2:	4463      	add	r3, ip
 80003a4:	1a59      	subs	r1, r3, r1
 80003a6:	fa1f f38e 	uxth.w	r3, lr
 80003aa:	fbb1 f0f7 	udiv	r0, r1, r7
 80003ae:	fb07 1110 	mls	r1, r7, r0, r1
 80003b2:	ea43 4301 	orr.w	r3, r3, r1, lsl #16
 80003b6:	fb00 f606 	mul.w	r6, r0, r6
 80003ba:	429e      	cmp	r6, r3
 80003bc:	d90a      	bls.n	80003d4 <__udivmoddi4+0x94>
 80003be:	eb1c 0303 	adds.w	r3, ip, r3
 80003c2:	f100 31ff 	add.w	r1, r0, #4294967295	@ 0xffffffff
 80003c6:	f080 80fc 	bcs.w	80005c2 <__udivmoddi4+0x282>
 80003ca:	429e      	cmp	r6, r3
 80003cc:	f240 80f9 	bls.w	80005c2 <__udivmoddi4+0x282>
 80003d0:	4463      	add	r3, ip
 80003d2:	3802      	subs	r0, #2
 80003d4:	1b9b      	subs	r3, r3, r6
 80003d6:	ea40 4004 	orr.w	r0, r0, r4, lsl #16
 80003da:	2100      	movs	r1, #0
 80003dc:	b11d      	cbz	r5, 80003e6 <__udivmoddi4+0xa6>
 80003de:	40d3      	lsrs	r3, r2
 80003e0:	2200      	movs	r2, #0
 80003e2:	e9c5 3200 	strd	r3, r2, [r5]
 80003e6:	e8bd 87f0 	ldmia.w	sp!, {r4, r5, r6, r7, r8, r9, sl, pc}
 80003ea:	428b      	cmp	r3, r1
 80003ec:	d905      	bls.n	80003fa <__udivmoddi4+0xba>
 80003ee:	b10d      	cbz	r5, 80003f4 <__udivmoddi4+0xb4>
 80003f0:	e9c5 0100 	strd	r0, r1, [r5]
 80003f4:	2100      	movs	r1, #0
 80003f6:	4608      	mov	r0, r1
 80003f8:	e7f5      	b.n	80003e6 <__udivmoddi4+0xa6>
 80003fa:	fab3 f183 	clz	r1, r3
 80003fe:	2900      	cmp	r1, #0
 8000400:	d146      	bne.n	8000490 <__udivmoddi4+0x150>
 8000402:	42a3      	cmp	r3, r4
 8000404:	d302      	bcc.n	800040c <__udivmoddi4+0xcc>
 8000406:	4290      	cmp	r0, r2
 8000408:	f0c0 80f0 	bcc.w	80005ec <__udivmoddi4+0x2ac>
 800040c:	1a86      	subs	r6, r0, r2
 800040e:	eb64 0303 	sbc.w	r3, r4, r3
 8000412:	2001      	movs	r0, #1
 8000414:	2d00      	cmp	r5, #0
 8000416:	d0e6      	beq.n	80003e6 <__udivmoddi4+0xa6>
 8000418:	e9c5 6300 	strd	r6, r3, [r5]
 800041c:	e7e3      	b.n	80003e6 <__udivmoddi4+0xa6>
 800041e:	2a00      	cmp	r2, #0
 8000420:	f040 8090 	bne.w	8000544 <__udivmoddi4+0x204>
 8000424:	eba1 040c 	sub.w	r4, r1, ip
 8000428:	ea4f 481c 	mov.w	r8, ip, lsr #16
 800042c:	fa1f f78c 	uxth.w	r7, ip
 8000430:	2101      	movs	r1, #1
 8000432:	fbb4 f6f8 	udiv	r6, r4, r8
 8000436:	ea4f 431e 	mov.w	r3, lr, lsr #16
 800043a:	fb08 4416 	mls	r4, r8, r6, r4
 800043e:	ea43 4304 	orr.w	r3, r3, r4, lsl #16
 8000442:	fb07 f006 	mul.w	r0, r7, r6
 8000446:	4298      	cmp	r0, r3
 8000448:	d908      	bls.n	800045c <__udivmoddi4+0x11c>
 800044a:	eb1c 0303 	adds.w	r3, ip, r3
 800044e:	f106 34ff 	add.w	r4, r6, #4294967295	@ 0xffffffff
 8000452:	d202      	bcs.n	800045a <__udivmoddi4+0x11a>
 8000454:	4298      	cmp	r0, r3
 8000456:	f200 80cd 	bhi.w	80005f4 <__udivmoddi4+0x2b4>
 800045a:	4626      	mov	r6, r4
 800045c:	1a1c      	subs	r4, r3, r0
 800045e:	fa1f f38e 	uxth.w	r3, lr
 8000462:	fbb4 f0f8 	udiv	r0, r4, r8
 8000466:	fb08 4410 	mls	r4, r8, r0, r4
 800046a:	ea43 4304 	orr.w	r3, r3, r4, lsl #16
 800046e:	fb00 f707 	mul.w	r7, r0, r7
 8000472:	429f      	cmp	r7, r3
 8000474:	d908      	bls.n	8000488 <__udivmoddi4+0x148>
 8000476:	eb1c 0303 	adds.w	r3, ip, r3
 800047a:	f100 34ff 	add.w	r4, r0, #4294967295	@ 0xffffffff
 800047e:	d202      	bcs.n	8000486 <__udivmoddi4+0x146>
 8000480:	429f      	cmp	r7, r3
 8000482:	f200 80b0 	bhi.w	80005e6 <__udivmoddi4+0x2a6>
 8000486:	4620      	mov	r0, r4
 8000488:	1bdb      	subs	r3, r3, r7
 800048a:	ea40 4006 	orr.w	r0, r0, r6, lsl #16
 800048e:	e7a5      	b.n	80003dc <__udivmoddi4+0x9c>
 8000490:	f1c1 0620 	rsb	r6, r1, #32
 8000494:	408b      	lsls	r3, r1
 8000496:	fa22 f706 	lsr.w	r7, r2, r6
 800049a:	431f      	orrs	r7, r3
 800049c:	fa20 fc06 	lsr.w	ip, r0, r6
 80004a0:	fa04 f301 	lsl.w	r3, r4, r1
 80004a4:	ea43 030c 	orr.w	r3, r3, ip
 80004a8:	40f4      	lsrs	r4, r6
 80004aa:	fa00 f801 	lsl.w	r8, r0, r1
 80004ae:	0c38      	lsrs	r0, r7, #16
 80004b0:	ea4f 4913 	mov.w	r9, r3, lsr #16
 80004b4:	fbb4 fef0 	udiv	lr, r4, r0
 80004b8:	fa1f fc87 	uxth.w	ip, r7
 80004bc:	fb00 441e 	mls	r4, r0, lr, r4
 80004c0:	ea49 4404 	orr.w	r4, r9, r4, lsl #16
 80004c4:	fb0e f90c 	mul.w	r9, lr, ip
 80004c8:	45a1      	cmp	r9, r4
 80004ca:	fa02 f201 	lsl.w	r2, r2, r1
 80004ce:	d90a      	bls.n	80004e6 <__udivmoddi4+0x1a6>
 80004d0:	193c      	adds	r4, r7, r4
 80004d2:	f10e 3aff 	add.w	sl, lr, #4294967295	@ 0xffffffff
 80004d6:	f080 8084 	bcs.w	80005e2 <__udivmoddi4+0x2a2>
 80004da:	45a1      	cmp	r9, r4
 80004dc:	f240 8081 	bls.w	80005e2 <__udivmoddi4+0x2a2>
 80004e0:	f1ae 0e02 	sub.w	lr, lr, #2
 80004e4:	443c      	add	r4, r7
 80004e6:	eba4 0409 	sub.w	r4, r4, r9
 80004ea:	fa1f f983 	uxth.w	r9, r3
 80004ee:	fbb4 f3f0 	udiv	r3, r4, r0
 80004f2:	fb00 4413 	mls	r4, r0, r3, r4
 80004f6:	ea49 4404 	orr.w	r4, r9, r4, lsl #16
 80004fa:	fb03 fc0c 	mul.w	ip, r3, ip
 80004fe:	45a4      	cmp	ip, r4
 8000500:	d907      	bls.n	8000512 <__udivmoddi4+0x1d2>
 8000502:	193c      	adds	r4, r7, r4
 8000504:	f103 30ff 	add.w	r0, r3, #4294967295	@ 0xffffffff
 8000508:	d267      	bcs.n	80005da <__udivmoddi4+0x29a>
 800050a:	45a4      	cmp	ip, r4
 800050c:	d965      	bls.n	80005da <__udivmoddi4+0x29a>
 800050e:	3b02      	subs	r3, #2
 8000510:	443c      	add	r4, r7
 8000512:	ea43 400e 	orr.w	r0, r3, lr, lsl #16
 8000516:	fba0 9302 	umull	r9, r3, r0, r2
 800051a:	eba4 040c 	sub.w	r4, r4, ip
 800051e:	429c      	cmp	r4, r3
 8000520:	46ce      	mov	lr, r9
 8000522:	469c      	mov	ip, r3
 8000524:	d351      	bcc.n	80005ca <__udivmoddi4+0x28a>
 8000526:	d04e      	beq.n	80005c6 <__udivmoddi4+0x286>
 8000528:	b155      	cbz	r5, 8000540 <__udivmoddi4+0x200>
 800052a:	ebb8 030e 	subs.w	r3, r8, lr
 800052e:	eb64 040c 	sbc.w	r4, r4, ip
 8000532:	fa04 f606 	lsl.w	r6, r4, r6
 8000536:	40cb      	lsrs	r3, r1
 8000538:	431e      	orrs	r6, r3
 800053a:	40cc      	lsrs	r4, r1
 800053c:	e9c5 6400 	strd	r6, r4, [r5]
 8000540:	2100      	movs	r1, #0
 8000542:	e750      	b.n	80003e6 <__udivmoddi4+0xa6>
 8000544:	f1c2 0320 	rsb	r3, r2, #32
 8000548:	fa20 f103 	lsr.w	r1, r0, r3
 800054c:	fa0c fc02 	lsl.w	ip, ip, r2
 8000550:	fa24 f303 	lsr.w	r3, r4, r3
 8000554:	4094      	lsls	r4, r2
 8000556:	430c      	orrs	r4, r1
 8000558:	ea4f 481c 	mov.w	r8, ip, lsr #16
 800055c:	fa00 fe02 	lsl.w	lr, r0, r2
 8000560:	fa1f f78c 	uxth.w	r7, ip
 8000564:	fbb3 f0f8 	udiv	r0, r3, r8
 8000568:	fb08 3110 	mls	r1, r8, r0, r3
 800056c:	0c23      	lsrs	r3, r4, #16
 800056e:	ea43 4301 	orr.w	r3, r3, r1, lsl #16
 8000572:	fb00 f107 	mul.w	r1, r0, r7
 8000576:	4299      	cmp	r1, r3
 8000578:	d908      	bls.n	800058c <__udivmoddi4+0x24c>
 800057a:	eb1c 0303 	adds.w	r3, ip, r3
 800057e:	f100 36ff 	add.w	r6, r0, #4294967295	@ 0xffffffff
 8000582:	d22c      	bcs.n	80005de <__udivmoddi4+0x29e>
 8000584:	4299      	cmp	r1, r3
 8000586:	d92a      	bls.n	80005de <__udivmoddi4+0x29e>
 8000588:	3802      	subs	r0, #2
 800058a:	4463      	add	r3, ip
 800058c:	1a5b      	subs	r3, r3, r1
 800058e:	b2a4      	uxth	r4, r4
 8000590:	fbb3 f1f8 	udiv	r1, r3, r8
 8000594:	fb08 3311 	mls	r3, r8, r1, r3
 8000598:	ea44 4403 	orr.w	r4, r4, r3, lsl #16
 800059c:	fb01 f307 	mul.w	r3, r1, r7
 80005a0:	42a3      	cmp	r3, r4
 80005a2:	d908      	bls.n	80005b6 <__udivmoddi4+0x276>
 80005a4:	eb1c 0404 	adds.w	r4, ip, r4
 80005a8:	f101 36ff 	add.w	r6, r1, #4294967295	@ 0xffffffff
 80005ac:	d213      	bcs.n	80005d6 <__udivmoddi4+0x296>
 80005ae:	42a3      	cmp	r3, r4
 80005b0:	d911      	bls.n	80005d6 <__udivmoddi4+0x296>
 80005b2:	3902      	subs	r1, #2
 80005b4:	4464      	add	r4, ip
 80005b6:	1ae4      	subs	r4, r4, r3
 80005b8:	ea41 4100 	orr.w	r1, r1, r0, lsl #16
 80005bc:	e739      	b.n	8000432 <__udivmoddi4+0xf2>
 80005be:	4604      	mov	r4, r0
 80005c0:	e6f0      	b.n	80003a4 <__udivmoddi4+0x64>
 80005c2:	4608      	mov	r0, r1
 80005c4:	e706      	b.n	80003d4 <__udivmoddi4+0x94>
 80005c6:	45c8      	cmp	r8, r9
 80005c8:	d2ae      	bcs.n	8000528 <__udivmoddi4+0x1e8>
 80005ca:	ebb9 0e02 	subs.w	lr, r9, r2
 80005ce:	eb63 0c07 	sbc.w	ip, r3, r7
 80005d2:	3801      	subs	r0, #1
 80005d4:	e7a8      	b.n	8000528 <__udivmoddi4+0x1e8>
 80005d6:	4631      	mov	r1, r6
 80005d8:	e7ed      	b.n	80005b6 <__udivmoddi4+0x276>
 80005da:	4603      	mov	r3, r0
 80005dc:	e799      	b.n	8000512 <__udivmoddi4+0x1d2>
 80005de:	4630      	mov	r0, r6
 80005e0:	e7d4      	b.n	800058c <__udivmoddi4+0x24c>
 80005e2:	46d6      	mov	lr, sl
 80005e4:	e77f      	b.n	80004e6 <__udivmoddi4+0x1a6>
 80005e6:	4463      	add	r3, ip
 80005e8:	3802      	subs	r0, #2
 80005ea:	e74d      	b.n	8000488 <__udivmoddi4+0x148>
 80005ec:	4606      	mov	r6, r0
 80005ee:	4623      	mov	r3, r4
 80005f0:	4608      	mov	r0, r1
 80005f2:	e70f      	b.n	8000414 <__udivmoddi4+0xd4>
 80005f4:	3e02      	subs	r6, #2
 80005f6:	4463      	add	r3, ip
 80005f8:	e730      	b.n	800045c <__udivmoddi4+0x11c>
 80005fa:	bf00      	nop

080005fc <__aeabi_idiv0>:
 80005fc:	4770      	bx	lr
 80005fe:	bf00      	nop

08000600 <branch_test>:
 8000600:	b510      	push	{r4, lr}
 8000602:	4604      	mov	r4, r0
 8000604:	f7ff fe04 	bl	8000210 <_coverage_trace>
 8000608:	7823      	ldrb	r3, [r4, #0]
 800060a:	2b44      	cmp	r3, #68	@ 0x44
 800060c:	d122      	bne.n	8000654 <branch_test+0x54>
 800060e:	f7ff fdff 	bl	8000210 <_coverage_trace>
 8000612:	7863      	ldrb	r3, [r4, #1]
 8000614:	2b45      	cmp	r3, #69	@ 0x45
 8000616:	d11d      	bne.n	8000654 <branch_test+0x54>
 8000618:	78a3      	ldrb	r3, [r4, #2]
 800061a:	2b41      	cmp	r3, #65	@ 0x41
 800061c:	d11a      	bne.n	8000654 <branch_test+0x54>
 800061e:	f7ff fdf7 	bl	8000210 <_coverage_trace>
 8000622:	78e3      	ldrb	r3, [r4, #3]
 8000624:	2b44      	cmp	r3, #68	@ 0x44
 8000626:	d115      	bne.n	8000654 <branch_test+0x54>
 8000628:	f7ff fdf2 	bl	8000210 <_coverage_trace>
 800062c:	7923      	ldrb	r3, [r4, #4]
 800062e:	2b42      	cmp	r3, #66	@ 0x42
 8000630:	d110      	bne.n	8000654 <branch_test+0x54>
 8000632:	f7ff fded 	bl	8000210 <_coverage_trace>
 8000636:	7963      	ldrb	r3, [r4, #5]
 8000638:	2b45      	cmp	r3, #69	@ 0x45
 800063a:	d10b      	bne.n	8000654 <branch_test+0x54>
 800063c:	f7ff fde8 	bl	8000210 <_coverage_trace>
 8000640:	79a3      	ldrb	r3, [r4, #6]
 8000642:	2b45      	cmp	r3, #69	@ 0x45
 8000644:	d106      	bne.n	8000654 <branch_test+0x54>
 8000646:	f7ff fde3 	bl	8000210 <_coverage_trace>
 800064a:	79e3      	ldrb	r3, [r4, #7]
 800064c:	2b46      	cmp	r3, #70	@ 0x46
 800064e:	d101      	bne.n	8000654 <branch_test+0x54>
 8000650:	f7ff fdde 	bl	8000210 <_coverage_trace>
 8000654:	2000      	movs	r0, #0
 8000656:	bd10      	pop	{r4, pc}

08000658 <fuzzer_setup>:
 8000658:	b5f8      	push	{r3, r4, r5, r6, r7, lr}
 800065a:	2400      	movs	r4, #0
 800065c:	4607      	mov	r7, r0
 800065e:	2001      	movs	r0, #1
 8000660:	460e      	mov	r6, r1
 8000662:	700c      	strb	r4, [r1, #0]
 8000664:	8048      	strh	r0, [r1, #2]
 8000666:	808c      	strh	r4, [r1, #4]
 8000668:	f44f 7182 	mov.w	r1, #260	@ 0x104
 800066c:	4615      	mov	r5, r2
 800066e:	f000 ff39 	bl	80014e4 <calloc>
 8000672:	60b0      	str	r0, [r6, #8]
 8000674:	b928      	cbnz	r0, 8000682 <fuzzer_setup+0x2a>
 8000676:	4811      	ldr	r0, [pc, #68]	@ (80006bc <fuzzer_setup+0x64>)
 8000678:	f001 f966 	bl	8001948 <puts>
 800067c:	f04f 30ff 	mov.w	r0, #4294967295	@ 0xffffffff
 8000680:	bdf8      	pop	{r3, r4, r5, r6, r7, pc}
 8000682:	4628      	mov	r0, r5
 8000684:	f44f 6360 	mov.w	r3, #3584	@ 0xe00
 8000688:	f8c5 4f40 	str.w	r4, [r5, #3904]	@ 0xf40
 800068c:	f640 723c 	movw	r2, #3900	@ 0xf3c
 8000690:	f840 3b04 	str.w	r3, [r0], #4
 8000694:	4621      	mov	r1, r4
 8000696:	f001 fa37 	bl	8001b08 <memset>
 800069a:	4b09      	ldr	r3, [pc, #36]	@ (80006c0 <fuzzer_setup+0x68>)
 800069c:	f44f 72c8 	mov.w	r2, #400	@ 0x190
 80006a0:	4618      	mov	r0, r3
 80006a2:	4621      	mov	r1, r4
 80006a4:	f001 fa30 	bl	8001b08 <memset>
 80006a8:	f64f 72ff 	movw	r2, #65535	@ 0xffff
 80006ac:	8002      	strh	r2, [r0, #0]
 80006ae:	4b05      	ldr	r3, [pc, #20]	@ (80006c4 <fuzzer_setup+0x6c>)
 80006b0:	4a05      	ldr	r2, [pc, #20]	@ (80006c8 <fuzzer_setup+0x70>)
 80006b2:	601f      	str	r7, [r3, #0]
 80006b4:	6010      	str	r0, [r2, #0]
 80006b6:	4620      	mov	r0, r4
 80006b8:	e7e2      	b.n	8000680 <fuzzer_setup+0x28>
 80006ba:	bf00      	nop
 80006bc:	08002588 	.word	0x08002588
 80006c0:	20000094 	.word	0x20000094
 80006c4:	2000008c 	.word	0x2000008c
 80006c8:	20000090 	.word	0x20000090

080006cc <mutator>:
 80006cc:	e92d 4ff8 	stmdb	sp!, {r3, r4, r5, r6, r7, r8, r9, sl, fp, lr}
 80006d0:	6885      	ldr	r5, [r0, #8]
 80006d2:	230f      	movs	r3, #15
 80006d4:	f8c5 3100 	str.w	r3, [r5, #256]	@ 0x100
 80006d8:	f8d5 a100 	ldr.w	sl, [r5, #256]	@ 0x100
 80006dc:	f1aa 0304 	sub.w	r3, sl, #4
 80006e0:	2bfc      	cmp	r3, #252	@ 0xfc
 80006e2:	4606      	mov	r6, r0
 80006e4:	460c      	mov	r4, r1
 80006e6:	f200 8201 	bhi.w	8000aec <mutator+0x420>
 80006ea:	7803      	ldrb	r3, [r0, #0]
 80006ec:	2b86      	cmp	r3, #134	@ 0x86
 80006ee:	d802      	bhi.n	80006f6 <mutator+0x2a>
 80006f0:	8842      	ldrh	r2, [r0, #2]
 80006f2:	2a01      	cmp	r2, #1
 80006f4:	d91c      	bls.n	8000730 <mutator+0x64>
 80006f6:	2208      	movs	r2, #8
 80006f8:	80b2      	strh	r2, [r6, #4]
 80006fa:	88b2      	ldrh	r2, [r6, #4]
 80006fc:	2a00      	cmp	r2, #0
 80006fe:	d147      	bne.n	8000790 <mutator+0xc4>
 8000700:	4613      	mov	r3, r2
 8000702:	2401      	movs	r4, #1
 8000704:	7832      	ldrb	r2, [r6, #0]
 8000706:	18e8      	adds	r0, r5, r3
 8000708:	f002 0201 	and.w	r2, r2, #1
 800070c:	7801      	ldrb	r1, [r0, #0]
 800070e:	fa04 f702 	lsl.w	r7, r4, r2
 8000712:	4079      	eors	r1, r7
 8000714:	3202      	adds	r2, #2
 8000716:	b2c9      	uxtb	r1, r1
 8000718:	2a07      	cmp	r2, #7
 800071a:	7001      	strb	r1, [r0, #0]
 800071c:	d9f6      	bls.n	800070c <mutator+0x40>
 800071e:	3301      	adds	r3, #1
 8000720:	459a      	cmp	sl, r3
 8000722:	d1ef      	bne.n	8000704 <mutator+0x38>
 8000724:	7833      	ldrb	r3, [r6, #0]
 8000726:	3301      	adds	r3, #1
 8000728:	7033      	strb	r3, [r6, #0]
 800072a:	2000      	movs	r0, #0
 800072c:	e8bd 8ff8 	ldmia.w	sp!, {r3, r4, r5, r6, r7, r8, r9, sl, fp, pc}
 8000730:	2b01      	cmp	r3, #1
 8000732:	d801      	bhi.n	8000738 <mutator+0x6c>
 8000734:	2200      	movs	r2, #0
 8000736:	e7df      	b.n	80006f8 <mutator+0x2c>
 8000738:	2b03      	cmp	r3, #3
 800073a:	d801      	bhi.n	8000740 <mutator+0x74>
 800073c:	2201      	movs	r2, #1
 800073e:	e7db      	b.n	80006f8 <mutator+0x2c>
 8000740:	2b05      	cmp	r3, #5
 8000742:	d801      	bhi.n	8000748 <mutator+0x7c>
 8000744:	2202      	movs	r2, #2
 8000746:	e7d7      	b.n	80006f8 <mutator+0x2c>
 8000748:	2b07      	cmp	r3, #7
 800074a:	d801      	bhi.n	8000750 <mutator+0x84>
 800074c:	2203      	movs	r2, #3
 800074e:	e7d3      	b.n	80006f8 <mutator+0x2c>
 8000750:	2b09      	cmp	r3, #9
 8000752:	d801      	bhi.n	8000758 <mutator+0x8c>
 8000754:	2204      	movs	r2, #4
 8000756:	e7cf      	b.n	80006f8 <mutator+0x2c>
 8000758:	2b0b      	cmp	r3, #11
 800075a:	d801      	bhi.n	8000760 <mutator+0x94>
 800075c:	2205      	movs	r2, #5
 800075e:	e7cb      	b.n	80006f8 <mutator+0x2c>
 8000760:	2b2f      	cmp	r3, #47	@ 0x2f
 8000762:	d801      	bhi.n	8000768 <mutator+0x9c>
 8000764:	2206      	movs	r2, #6
 8000766:	e7c7      	b.n	80006f8 <mutator+0x2c>
 8000768:	2b51      	cmp	r3, #81	@ 0x51
 800076a:	d801      	bhi.n	8000770 <mutator+0xa4>
 800076c:	2207      	movs	r2, #7
 800076e:	e7c3      	b.n	80006f8 <mutator+0x2c>
 8000770:	2b63      	cmp	r3, #99	@ 0x63
 8000772:	d805      	bhi.n	8000780 <mutator+0xb4>
 8000774:	f8d1 2f40 	ldr.w	r2, [r1, #3904]	@ 0xf40
 8000778:	2a01      	cmp	r2, #1
 800077a:	d903      	bls.n	8000784 <mutator+0xb8>
 800077c:	2209      	movs	r2, #9
 800077e:	e7bb      	b.n	80006f8 <mutator+0x2c>
 8000780:	2b68      	cmp	r3, #104	@ 0x68
 8000782:	d801      	bhi.n	8000788 <mutator+0xbc>
 8000784:	220a      	movs	r2, #10
 8000786:	e7b7      	b.n	80006f8 <mutator+0x2c>
 8000788:	2b6d      	cmp	r3, #109	@ 0x6d
 800078a:	d8b6      	bhi.n	80006fa <mutator+0x2e>
 800078c:	220b      	movs	r2, #11
 800078e:	e7b3      	b.n	80006f8 <mutator+0x2c>
 8000790:	3a01      	subs	r2, #1
 8000792:	2a0a      	cmp	r2, #10
 8000794:	d8c6      	bhi.n	8000724 <mutator+0x58>
 8000796:	a101      	add	r1, pc, #4	@ (adr r1, 800079c <mutator+0xd0>)
 8000798:	f851 f022 	ldr.w	pc, [r1, r2, lsl #2]
 800079c:	080007f9 	.word	0x080007f9
 80007a0:	08000833 	.word	0x08000833
 80007a4:	0800083b 	.word	0x0800083b
 80007a8:	08000725 	.word	0x08000725
 80007ac:	0800084f 	.word	0x0800084f
 80007b0:	08000867 	.word	0x08000867
 80007b4:	08000885 	.word	0x08000885
 80007b8:	08000977 	.word	0x08000977
 80007bc:	080008a3 	.word	0x080008a3
 80007c0:	08000903 	.word	0x08000903
 80007c4:	0800093f 	.word	0x0800093f
 80007c8:	07da      	lsls	r2, r3, #31
 80007ca:	bf5f      	itttt	pl
 80007cc:	7822      	ldrbpl	r2, [r4, #0]
 80007ce:	fa07 fc00 	lslpl.w	ip, r7, r0
 80007d2:	ea82 020c 	eorpl.w	r2, r2, ip
 80007d6:	b2d2      	uxtbpl	r2, r2
 80007d8:	bf58      	it	pl
 80007da:	3301      	addpl	r3, #1
 80007dc:	f100 0001 	add.w	r0, r0, #1
 80007e0:	bf5a      	itte	pl
 80007e2:	7022      	strbpl	r2, [r4, #0]
 80007e4:	b2db      	uxtbpl	r3, r3
 80007e6:	2300      	movmi	r3, #0
 80007e8:	2808      	cmp	r0, #8
 80007ea:	d1ed      	bne.n	80007c8 <mutator+0xfc>
 80007ec:	3101      	adds	r1, #1
 80007ee:	458a      	cmp	sl, r1
 80007f0:	d098      	beq.n	8000724 <mutator+0x58>
 80007f2:	2000      	movs	r0, #0
 80007f4:	186c      	adds	r4, r5, r1
 80007f6:	e7e7      	b.n	80007c8 <mutator+0xfc>
 80007f8:	2300      	movs	r3, #0
 80007fa:	4619      	mov	r1, r3
 80007fc:	2701      	movs	r7, #1
 80007fe:	e7f8      	b.n	80007f2 <mutator+0x126>
 8000800:	079a      	lsls	r2, r3, #30
 8000802:	bf01      	itttt	eq
 8000804:	7822      	ldrbeq	r2, [r4, #0]
 8000806:	fa07 fc00 	lsleq.w	ip, r7, r0
 800080a:	ea82 020c 	eoreq.w	r2, r2, ip
 800080e:	b2d2      	uxtbeq	r2, r2
 8000810:	bf08      	it	eq
 8000812:	3301      	addeq	r3, #1
 8000814:	f100 0001 	add.w	r0, r0, #1
 8000818:	bf06      	itte	eq
 800081a:	7022      	strbeq	r2, [r4, #0]
 800081c:	b2db      	uxtbeq	r3, r3
 800081e:	2300      	movne	r3, #0
 8000820:	2808      	cmp	r0, #8
 8000822:	d1ed      	bne.n	8000800 <mutator+0x134>
 8000824:	3101      	adds	r1, #1
 8000826:	458a      	cmp	sl, r1
 8000828:	f43f af7c 	beq.w	8000724 <mutator+0x58>
 800082c:	2000      	movs	r0, #0
 800082e:	186c      	adds	r4, r5, r1
 8000830:	e7e6      	b.n	8000800 <mutator+0x134>
 8000832:	2300      	movs	r3, #0
 8000834:	4619      	mov	r1, r3
 8000836:	2701      	movs	r7, #1
 8000838:	e7f8      	b.n	800082c <mutator+0x160>
 800083a:	f003 0301 	and.w	r3, r3, #1
 800083e:	5cea      	ldrb	r2, [r5, r3]
 8000840:	43d2      	mvns	r2, r2
 8000842:	b2d2      	uxtb	r2, r2
 8000844:	54ea      	strb	r2, [r5, r3]
 8000846:	3302      	adds	r3, #2
 8000848:	459a      	cmp	sl, r3
 800084a:	d8f8      	bhi.n	800083e <mutator+0x172>
 800084c:	e76a      	b.n	8000724 <mutator+0x58>
 800084e:	f003 0301 	and.w	r3, r3, #1
 8000852:	079a      	lsls	r2, r3, #30
 8000854:	bf1f      	itttt	ne
 8000856:	5cea      	ldrbne	r2, [r5, r3]
 8000858:	43d2      	mvnne	r2, r2
 800085a:	b2d2      	uxtbne	r2, r2
 800085c:	54ea      	strbne	r2, [r5, r3]
 800085e:	3301      	adds	r3, #1
 8000860:	459a      	cmp	sl, r3
 8000862:	d8f6      	bhi.n	8000852 <mutator+0x186>
 8000864:	e75e      	b.n	8000724 <mutator+0x58>
 8000866:	2300      	movs	r3, #0
 8000868:	2023      	movs	r0, #35	@ 0x23
 800086a:	7831      	ldrb	r1, [r6, #0]
 800086c:	5cea      	ldrb	r2, [r5, r3]
 800086e:	fbb1 f4f0 	udiv	r4, r1, r0
 8000872:	fb00 1114 	mls	r1, r0, r4, r1
 8000876:	440a      	add	r2, r1
 8000878:	b2d2      	uxtb	r2, r2
 800087a:	54ea      	strb	r2, [r5, r3]
 800087c:	3302      	adds	r3, #2
 800087e:	459a      	cmp	sl, r3
 8000880:	d8f3      	bhi.n	800086a <mutator+0x19e>
 8000882:	e74f      	b.n	8000724 <mutator+0x58>
 8000884:	2300      	movs	r3, #0
 8000886:	2023      	movs	r0, #35	@ 0x23
 8000888:	7831      	ldrb	r1, [r6, #0]
 800088a:	5cea      	ldrb	r2, [r5, r3]
 800088c:	fbb1 f4f0 	udiv	r4, r1, r0
 8000890:	fb00 1114 	mls	r1, r0, r4, r1
 8000894:	1a52      	subs	r2, r2, r1
 8000896:	b2d2      	uxtb	r2, r2
 8000898:	54ea      	strb	r2, [r5, r3]
 800089a:	3302      	adds	r3, #2
 800089c:	459a      	cmp	sl, r3
 800089e:	d8f3      	bhi.n	8000888 <mutator+0x1bc>
 80008a0:	e740      	b.n	8000724 <mutator+0x58>
 80008a2:	f000 fefb 	bl	800169c <rand>
 80008a6:	f8d4 3f40 	ldr.w	r3, [r4, #3904]	@ 0xf40
 80008aa:	fbb0 f2f3 	udiv	r2, r0, r3
 80008ae:	fb02 0013 	mls	r0, r2, r3, r0
 80008b2:	68b3      	ldr	r3, [r6, #8]
 80008b4:	f8d3 2100 	ldr.w	r2, [r3, #256]	@ 0x100
 80008b8:	f44f 7382 	mov.w	r3, #260	@ 0x104
 80008bc:	fb03 4300 	mla	r3, r3, r0, r4
 80008c0:	2a01      	cmp	r2, #1
 80008c2:	f8d3 3104 	ldr.w	r3, [r3, #260]	@ 0x104
 80008c6:	bf8c      	ite	hi
 80008c8:	0852      	lsrhi	r2, r2, #1
 80008ca:	2201      	movls	r2, #1
 80008cc:	f44f 7182 	mov.w	r1, #260	@ 0x104
 80008d0:	2b01      	cmp	r3, #1
 80008d2:	bf8c      	ite	hi
 80008d4:	085b      	lsrhi	r3, r3, #1
 80008d6:	2301      	movls	r3, #1
 80008d8:	fb01 4100 	mla	r1, r1, r0, r4
 80008dc:	68b0      	ldr	r0, [r6, #8]
 80008de:	f8d0 0100 	ldr.w	r0, [r0, #256]	@ 0x100
 80008e2:	4290      	cmp	r0, r2
 80008e4:	f67f af1e 	bls.w	8000724 <mutator+0x58>
 80008e8:	18c8      	adds	r0, r1, r3
 80008ea:	3301      	adds	r3, #1
 80008ec:	7900      	ldrb	r0, [r0, #4]
 80008ee:	b2c0      	uxtb	r0, r0
 80008f0:	54a8      	strb	r0, [r5, r2]
 80008f2:	f8d1 0104 	ldr.w	r0, [r1, #260]	@ 0x104
 80008f6:	ebb3 0f50 	cmp.w	r3, r0, lsr #1
 80008fa:	f4bf af13 	bcs.w	8000724 <mutator+0x58>
 80008fe:	3201      	adds	r2, #1
 8000900:	e7ec      	b.n	80008dc <mutator+0x210>
 8000902:	f000 fecb 	bl	800169c <rand>
 8000906:	68b3      	ldr	r3, [r6, #8]
 8000908:	f8d3 2100 	ldr.w	r2, [r3, #256]	@ 0x100
 800090c:	f000 007f 	and.w	r0, r0, #127	@ 0x7f
 8000910:	1a12      	subs	r2, r2, r0
 8000912:	b212      	sxth	r2, r2
 8000914:	2a04      	cmp	r2, #4
 8000916:	f77f af05 	ble.w	8000724 <mutator+0x58>
 800091a:	f8d3 2100 	ldr.w	r2, [r3, #256]	@ 0x100
 800091e:	2400      	movs	r4, #0
 8000920:	3a01      	subs	r2, #1
 8000922:	f8d3 1100 	ldr.w	r1, [r3, #256]	@ 0x100
 8000926:	1a09      	subs	r1, r1, r0
 8000928:	4291      	cmp	r1, r2
 800092a:	d305      	bcc.n	8000938 <mutator+0x26c>
 800092c:	f8d3 2100 	ldr.w	r2, [r3, #256]	@ 0x100
 8000930:	1a12      	subs	r2, r2, r0
 8000932:	f8c3 2100 	str.w	r2, [r3, #256]	@ 0x100
 8000936:	e6f5      	b.n	8000724 <mutator+0x58>
 8000938:	549c      	strb	r4, [r3, r2]
 800093a:	3a01      	subs	r2, #1
 800093c:	e7f1      	b.n	8000922 <mutator+0x256>
 800093e:	f000 fead 	bl	800169c <rand>
 8000942:	68b3      	ldr	r3, [r6, #8]
 8000944:	f8d3 2100 	ldr.w	r2, [r3, #256]	@ 0x100
 8000948:	f000 007f 	and.w	r0, r0, #127	@ 0x7f
 800094c:	4402      	add	r2, r0
 800094e:	2aff      	cmp	r2, #255	@ 0xff
 8000950:	f63f aee8 	bhi.w	8000724 <mutator+0x58>
 8000954:	f8d3 2100 	ldr.w	r2, [r3, #256]	@ 0x100
 8000958:	2445      	movs	r4, #69	@ 0x45
 800095a:	f8d3 1100 	ldr.w	r1, [r3, #256]	@ 0x100
 800095e:	4401      	add	r1, r0
 8000960:	4291      	cmp	r1, r2
 8000962:	d805      	bhi.n	8000970 <mutator+0x2a4>
 8000964:	f8d3 2100 	ldr.w	r2, [r3, #256]	@ 0x100
 8000968:	4410      	add	r0, r2
 800096a:	f8c3 0100 	str.w	r0, [r3, #256]	@ 0x100
 800096e:	e6d9      	b.n	8000724 <mutator+0x58>
 8000970:	549c      	strb	r4, [r3, r2]
 8000972:	3201      	adds	r2, #1
 8000974:	e7f1      	b.n	800095a <mutator+0x28e>
 8000976:	f000 fe91 	bl	800169c <rand>
 800097a:	2364      	movs	r3, #100	@ 0x64
 800097c:	b2c0      	uxtb	r0, r0
 800097e:	fbb0 f2f3 	udiv	r2, r0, r3
 8000982:	fb03 0012 	mls	r0, r3, r2, r0
 8000986:	b2c7      	uxtb	r7, r0
 8000988:	f04f 0800 	mov.w	r8, #0
 800098c:	f04f 090c 	mov.w	r9, #12
 8000990:	4547      	cmp	r7, r8
 8000992:	f67f aec7 	bls.w	8000724 <mutator+0x58>
 8000996:	f000 fe81 	bl	800169c <rand>
 800099a:	4683      	mov	fp, r0
 800099c:	f000 fe7e 	bl	800169c <rand>
 80009a0:	b2c4      	uxtb	r4, r0
 80009a2:	fa5f f08b 	uxtb.w	r0, fp
 80009a6:	fbb4 f3fa 	udiv	r3, r4, sl
 80009aa:	fb0a 4413 	mls	r4, sl, r3, r4
 80009ae:	fbb0 f3f9 	udiv	r3, r0, r9
 80009b2:	fb09 0313 	mls	r3, r9, r3, r0
 80009b6:	b2db      	uxtb	r3, r3
 80009b8:	3b01      	subs	r3, #1
 80009ba:	2b0a      	cmp	r3, #10
 80009bc:	d807      	bhi.n	80009ce <mutator+0x302>
 80009be:	e8df f003 	tbb	[pc, r3]
 80009c2:	180d      	.short	0x180d
 80009c4:	30271f1b 	.word	0x30271f1b
 80009c8:	7b6b7646 	.word	0x7b6b7646
 80009cc:	93          	.byte	0x93
 80009cd:	00          	.byte	0x00
 80009ce:	f000 fe65 	bl	800169c <rand>
 80009d2:	b2c0      	uxtb	r0, r0
 80009d4:	5528      	strb	r0, [r5, r4]
 80009d6:	f108 0801 	add.w	r8, r8, #1
 80009da:	e7d9      	b.n	8000990 <mutator+0x2c4>
 80009dc:	7832      	ldrb	r2, [r6, #0]
 80009de:	5d2b      	ldrb	r3, [r5, r4]
 80009e0:	2122      	movs	r1, #34	@ 0x22
 80009e2:	fbb2 f0f1 	udiv	r0, r2, r1
 80009e6:	fb01 2210 	mls	r2, r1, r0, r2
 80009ea:	4413      	add	r3, r2
 80009ec:	b2db      	uxtb	r3, r3
 80009ee:	552b      	strb	r3, [r5, r4]
 80009f0:	e7f1      	b.n	80009d6 <mutator+0x30a>
 80009f2:	5d2b      	ldrb	r3, [r5, r4]
 80009f4:	7832      	ldrb	r2, [r6, #0]
 80009f6:	e7f8      	b.n	80009ea <mutator+0x31e>
 80009f8:	5d2b      	ldrb	r3, [r5, r4]
 80009fa:	7832      	ldrb	r2, [r6, #0]
 80009fc:	1a9b      	subs	r3, r3, r2
 80009fe:	e7f5      	b.n	80009ec <mutator+0x320>
 8000a00:	7832      	ldrb	r2, [r6, #0]
 8000a02:	5d2b      	ldrb	r3, [r5, r4]
 8000a04:	2122      	movs	r1, #34	@ 0x22
 8000a06:	fbb2 f0f1 	udiv	r0, r2, r1
 8000a0a:	fb01 2210 	mls	r2, r1, r0, r2
 8000a0e:	e7f5      	b.n	80009fc <mutator+0x330>
 8000a10:	f000 fe44 	bl	800169c <rand>
 8000a14:	2201      	movs	r2, #1
 8000a16:	f000 0007 	and.w	r0, r0, #7
 8000a1a:	5d2b      	ldrb	r3, [r5, r4]
 8000a1c:	4082      	lsls	r2, r0
 8000a1e:	4053      	eors	r3, r2
 8000a20:	e7e4      	b.n	80009ec <mutator+0x320>
 8000a22:	f000 fe3b 	bl	800169c <rand>
 8000a26:	2307      	movs	r3, #7
 8000a28:	b2c0      	uxtb	r0, r0
 8000a2a:	fbb0 f3f3 	udiv	r3, r0, r3
 8000a2e:	ebc3 03c3 	rsb	r3, r3, r3, lsl #3
 8000a32:	1ac0      	subs	r0, r0, r3
 8000a34:	5d2a      	ldrb	r2, [r5, r4]
 8000a36:	2101      	movs	r1, #1
 8000a38:	b2c0      	uxtb	r0, r0
 8000a3a:	fa01 f300 	lsl.w	r3, r1, r0
 8000a3e:	405a      	eors	r2, r3
 8000a40:	b2d2      	uxtb	r2, r2
 8000a42:	552a      	strb	r2, [r5, r4]
 8000a44:	4408      	add	r0, r1
 8000a46:	5d2b      	ldrb	r3, [r5, r4]
 8000a48:	fa01 f200 	lsl.w	r2, r1, r0
 8000a4c:	e7e7      	b.n	8000a1e <mutator+0x352>
 8000a4e:	f000 fe25 	bl	800169c <rand>
 8000a52:	2305      	movs	r3, #5
 8000a54:	b2c0      	uxtb	r0, r0
 8000a56:	fbb0 f3f3 	udiv	r3, r0, r3
 8000a5a:	eb03 0383 	add.w	r3, r3, r3, lsl #2
 8000a5e:	1ac0      	subs	r0, r0, r3
 8000a60:	5d29      	ldrb	r1, [r5, r4]
 8000a62:	2201      	movs	r2, #1
 8000a64:	b2c3      	uxtb	r3, r0
 8000a66:	fa02 f003 	lsl.w	r0, r2, r3
 8000a6a:	4041      	eors	r1, r0
 8000a6c:	b2c9      	uxtb	r1, r1
 8000a6e:	5529      	strb	r1, [r5, r4]
 8000a70:	1898      	adds	r0, r3, r2
 8000a72:	5d29      	ldrb	r1, [r5, r4]
 8000a74:	fa02 f000 	lsl.w	r0, r2, r0
 8000a78:	4041      	eors	r1, r0
 8000a7a:	b2c9      	uxtb	r1, r1
 8000a7c:	5529      	strb	r1, [r5, r4]
 8000a7e:	1c98      	adds	r0, r3, #2
 8000a80:	5d29      	ldrb	r1, [r5, r4]
 8000a82:	fa02 f000 	lsl.w	r0, r2, r0
 8000a86:	4041      	eors	r1, r0
 8000a88:	b2c9      	uxtb	r1, r1
 8000a8a:	5529      	strb	r1, [r5, r4]
 8000a8c:	3303      	adds	r3, #3
 8000a8e:	5d29      	ldrb	r1, [r5, r4]
 8000a90:	fa02 f303 	lsl.w	r3, r2, r3
 8000a94:	404b      	eors	r3, r1
 8000a96:	e7a9      	b.n	80009ec <mutator+0x320>
 8000a98:	3c01      	subs	r4, #1
 8000a9a:	2c01      	cmp	r4, #1
 8000a9c:	d90a      	bls.n	8000ab4 <mutator+0x3e8>
 8000a9e:	45a2      	cmp	sl, r4
 8000aa0:	bf38      	it	cc
 8000aa2:	2400      	movcc	r4, #0
 8000aa4:	5d2b      	ldrb	r3, [r5, r4]
 8000aa6:	43db      	mvns	r3, r3
 8000aa8:	b2db      	uxtb	r3, r3
 8000aaa:	552b      	strb	r3, [r5, r4]
 8000aac:	3401      	adds	r4, #1
 8000aae:	5d2b      	ldrb	r3, [r5, r4]
 8000ab0:	43db      	mvns	r3, r3
 8000ab2:	e79b      	b.n	80009ec <mutator+0x320>
 8000ab4:	2400      	movs	r4, #0
 8000ab6:	e7f5      	b.n	8000aa4 <mutator+0x3d8>
 8000ab8:	3c04      	subs	r4, #4
 8000aba:	2c03      	cmp	r4, #3
 8000abc:	d912      	bls.n	8000ae4 <mutator+0x418>
 8000abe:	45a2      	cmp	sl, r4
 8000ac0:	bf38      	it	cc
 8000ac2:	2400      	movcc	r4, #0
 8000ac4:	5d2b      	ldrb	r3, [r5, r4]
 8000ac6:	43db      	mvns	r3, r3
 8000ac8:	b2db      	uxtb	r3, r3
 8000aca:	552b      	strb	r3, [r5, r4]
 8000acc:	1c62      	adds	r2, r4, #1
 8000ace:	5cab      	ldrb	r3, [r5, r2]
 8000ad0:	43db      	mvns	r3, r3
 8000ad2:	b2db      	uxtb	r3, r3
 8000ad4:	54ab      	strb	r3, [r5, r2]
 8000ad6:	1ca2      	adds	r2, r4, #2
 8000ad8:	3403      	adds	r4, #3
 8000ada:	5cab      	ldrb	r3, [r5, r2]
 8000adc:	43db      	mvns	r3, r3
 8000ade:	b2db      	uxtb	r3, r3
 8000ae0:	54ab      	strb	r3, [r5, r2]
 8000ae2:	e7e4      	b.n	8000aae <mutator+0x3e2>
 8000ae4:	2400      	movs	r4, #0
 8000ae6:	e7ed      	b.n	8000ac4 <mutator+0x3f8>
 8000ae8:	2300      	movs	r3, #0
 8000aea:	e780      	b.n	80009ee <mutator+0x322>
 8000aec:	f06f 0001 	mvn.w	r0, #1
 8000af0:	e61c      	b.n	800072c <mutator+0x60>
 8000af2:	bf00      	nop

08000af4 <dequeue_seed>:
 8000af4:	b510      	push	{r4, lr}
 8000af6:	784b      	ldrb	r3, [r1, #1]
 8000af8:	780a      	ldrb	r2, [r1, #0]
 8000afa:	429a      	cmp	r2, r3
 8000afc:	bf04      	itt	eq
 8000afe:	2300      	moveq	r3, #0
 8000b00:	700b      	strbeq	r3, [r1, #0]
 8000b02:	7803      	ldrb	r3, [r0, #0]
 8000b04:	2bfa      	cmp	r3, #250	@ 0xfa
 8000b06:	d104      	bne.n	8000b12 <dequeue_seed+0x1e>
 8000b08:	780b      	ldrb	r3, [r1, #0]
 8000b0a:	2200      	movs	r2, #0
 8000b0c:	3301      	adds	r3, #1
 8000b0e:	7002      	strb	r2, [r0, #0]
 8000b10:	700b      	strb	r3, [r1, #0]
 8000b12:	f8d1 3f40 	ldr.w	r3, [r1, #3904]	@ 0xf40
 8000b16:	780a      	ldrb	r2, [r1, #0]
 8000b18:	429a      	cmp	r2, r3
 8000b1a:	d304      	bcc.n	8000b26 <dequeue_seed+0x32>
 8000b1c:	884b      	ldrh	r3, [r1, #2]
 8000b1e:	2200      	movs	r2, #0
 8000b20:	3301      	adds	r3, #1
 8000b22:	700a      	strb	r2, [r1, #0]
 8000b24:	804b      	strh	r3, [r1, #2]
 8000b26:	884b      	ldrh	r3, [r1, #2]
 8000b28:	2b05      	cmp	r3, #5
 8000b2a:	d904      	bls.n	8000b36 <dequeue_seed+0x42>
 8000b2c:	8843      	ldrh	r3, [r0, #2]
 8000b2e:	2b0a      	cmp	r3, #10
 8000b30:	bf9c      	itt	ls
 8000b32:	2301      	movls	r3, #1
 8000b34:	8043      	strhls	r3, [r0, #2]
 8000b36:	780a      	ldrb	r2, [r1, #0]
 8000b38:	6880      	ldr	r0, [r0, #8]
 8000b3a:	f44f 7482 	mov.w	r4, #260	@ 0x104
 8000b3e:	2300      	movs	r3, #0
 8000b40:	fb04 1102 	mla	r1, r4, r2, r1
 8000b44:	f8d1 2104 	ldr.w	r2, [r1, #260]	@ 0x104
 8000b48:	429a      	cmp	r2, r3
 8000b4a:	d804      	bhi.n	8000b56 <dequeue_seed+0x62>
 8000b4c:	f8d1 3104 	ldr.w	r3, [r1, #260]	@ 0x104
 8000b50:	f8c0 3100 	str.w	r3, [r0, #256]	@ 0x100
 8000b54:	bd10      	pop	{r4, pc}
 8000b56:	18ca      	adds	r2, r1, r3
 8000b58:	7912      	ldrb	r2, [r2, #4]
 8000b5a:	b2d2      	uxtb	r2, r2
 8000b5c:	54c2      	strb	r2, [r0, r3]
 8000b5e:	3301      	adds	r3, #1
 8000b60:	e7f0      	b.n	8000b44 <dequeue_seed+0x50>
	...

08000b64 <check_for_coverage>:
 8000b64:	b510      	push	{r4, lr}
 8000b66:	490f      	ldr	r1, [pc, #60]	@ (8000ba4 <check_for_coverage+0x40>)
 8000b68:	780b      	ldrb	r3, [r1, #0]
 8000b6a:	b1ab      	cbz	r3, 8000b98 <check_for_coverage+0x34>
 8000b6c:	4a0e      	ldr	r2, [pc, #56]	@ (8000ba8 <check_for_coverage+0x44>)
 8000b6e:	8813      	ldrh	r3, [r2, #0]
 8000b70:	f64f 74ff 	movw	r4, #65535	@ 0xffff
 8000b74:	b29b      	uxth	r3, r3
 8000b76:	42a3      	cmp	r3, r4
 8000b78:	d00f      	beq.n	8000b9a <check_for_coverage+0x36>
 8000b7a:	2300      	movs	r3, #0
 8000b7c:	461c      	mov	r4, r3
 8000b7e:	f822 4013 	strh.w	r4, [r2, r3, lsl #1]
 8000b82:	3301      	adds	r3, #1
 8000b84:	2bc8      	cmp	r3, #200	@ 0xc8
 8000b86:	d1fa      	bne.n	8000b7e <check_for_coverage+0x1a>
 8000b88:	f64f 73ff 	movw	r3, #65535	@ 0xffff
 8000b8c:	8013      	strh	r3, [r2, #0]
 8000b8e:	4b07      	ldr	r3, [pc, #28]	@ (8000bac <check_for_coverage+0x48>)
 8000b90:	700c      	strb	r4, [r1, #0]
 8000b92:	601a      	str	r2, [r3, #0]
 8000b94:	2301      	movs	r3, #1
 8000b96:	8043      	strh	r3, [r0, #2]
 8000b98:	bd10      	pop	{r4, pc}
 8000b9a:	f04f 30ff 	mov.w	r0, #4294967295	@ 0xffffffff
 8000b9e:	f000 fcbd 	bl	800151c <exit>
 8000ba2:	bf00      	nop
 8000ba4:	20000088 	.word	0x20000088
 8000ba8:	20000094 	.word	0x20000094
 8000bac:	20000090 	.word	0x20000090

08000bb0 <harness_loop>:
 8000bb0:	b510      	push	{r4, lr}
 8000bb2:	f5ad 6d75 	sub.w	sp, sp, #3920	@ 0xf50
 8000bb6:	4810      	ldr	r0, [pc, #64]	@ (8000bf8 <harness_loop+0x48>)
 8000bb8:	aa03      	add	r2, sp, #12
 8000bba:	4669      	mov	r1, sp
 8000bbc:	f7ff fd4c 	bl	8000658 <fuzzer_setup>
 8000bc0:	b9b0      	cbnz	r0, 8000bf0 <harness_loop+0x40>
 8000bc2:	4c0e      	ldr	r4, [pc, #56]	@ (8000bfc <harness_loop+0x4c>)
 8000bc4:	6823      	ldr	r3, [r4, #0]
 8000bc6:	a903      	add	r1, sp, #12
 8000bc8:	3301      	adds	r3, #1
 8000bca:	4668      	mov	r0, sp
 8000bcc:	6023      	str	r3, [r4, #0]
 8000bce:	f7ff ff91 	bl	8000af4 <dequeue_seed>
 8000bd2:	a903      	add	r1, sp, #12
 8000bd4:	4668      	mov	r0, sp
 8000bd6:	f7ff fd79 	bl	80006cc <mutator>
 8000bda:	b948      	cbnz	r0, 8000bf0 <harness_loop+0x40>
 8000bdc:	9802      	ldr	r0, [sp, #8]
 8000bde:	f8d0 1100 	ldr.w	r1, [r0, #256]	@ 0x100
 8000be2:	b209      	sxth	r1, r1
 8000be4:	f7ff fd0c 	bl	8000600 <branch_test>
 8000be8:	4668      	mov	r0, sp
 8000bea:	f7ff ffbb 	bl	8000b64 <check_for_coverage>
 8000bee:	e7e9      	b.n	8000bc4 <harness_loop+0x14>
 8000bf0:	f04f 30ff 	mov.w	r0, #4294967295	@ 0xffffffff
 8000bf4:	f000 fc92 	bl	800151c <exit>
 8000bf8:	08000601 	.word	0x08000601
 8000bfc:	20000084 	.word	0x20000084

08000c00 <board_setup>:
 8000c00:	b082      	sub	sp, #8
 8000c02:	f04f 22e0 	mov.w	r2, #3758153728	@ 0xe000e000
 8000c06:	2300      	movs	r3, #0
 8000c08:	9301      	str	r3, [sp, #4]
 8000c0a:	6893      	ldr	r3, [r2, #8]
 8000c0c:	9301      	str	r3, [sp, #4]
 8000c0e:	9b01      	ldr	r3, [sp, #4]
 8000c10:	f043 0302 	orr.w	r3, r3, #2
 8000c14:	9301      	str	r3, [sp, #4]
 8000c16:	9b01      	ldr	r3, [sp, #4]
 8000c18:	f043 0304 	orr.w	r3, r3, #4
 8000c1c:	9301      	str	r3, [sp, #4]
 8000c1e:	9b01      	ldr	r3, [sp, #4]
 8000c20:	6093      	str	r3, [r2, #8]
 8000c22:	b002      	add	sp, #8
 8000c24:	4770      	bx	lr
	...

08000c28 <SystemClock_Config>:
 8000c28:	b500      	push	{lr}
 8000c2a:	b095      	sub	sp, #84	@ 0x54
 8000c2c:	2230      	movs	r2, #48	@ 0x30
 8000c2e:	2100      	movs	r1, #0
 8000c30:	a808      	add	r0, sp, #32
 8000c32:	f000 ff69 	bl	8001b08 <memset>
 8000c36:	2214      	movs	r2, #20
 8000c38:	2100      	movs	r1, #0
 8000c3a:	a802      	add	r0, sp, #8
 8000c3c:	f000 ff64 	bl	8001b08 <memset>
 8000c40:	2200      	movs	r2, #0
 8000c42:	4b1a      	ldr	r3, [pc, #104]	@ (8000cac <SystemClock_Config+0x84>)
 8000c44:	9200      	str	r2, [sp, #0]
 8000c46:	6c19      	ldr	r1, [r3, #64]	@ 0x40
 8000c48:	f041 5180 	orr.w	r1, r1, #268435456	@ 0x10000000
 8000c4c:	6419      	str	r1, [r3, #64]	@ 0x40
 8000c4e:	6c1b      	ldr	r3, [r3, #64]	@ 0x40
 8000c50:	4917      	ldr	r1, [pc, #92]	@ (8000cb0 <SystemClock_Config+0x88>)
 8000c52:	f003 5380 	and.w	r3, r3, #268435456	@ 0x10000000
 8000c56:	9300      	str	r3, [sp, #0]
 8000c58:	9b00      	ldr	r3, [sp, #0]
 8000c5a:	9201      	str	r2, [sp, #4]
 8000c5c:	680b      	ldr	r3, [r1, #0]
 8000c5e:	f423 4340 	bic.w	r3, r3, #49152	@ 0xc000
 8000c62:	f443 4380 	orr.w	r3, r3, #16384	@ 0x4000
 8000c66:	600b      	str	r3, [r1, #0]
 8000c68:	680b      	ldr	r3, [r1, #0]
 8000c6a:	920d      	str	r2, [sp, #52]	@ 0x34
 8000c6c:	f403 4340 	and.w	r3, r3, #49152	@ 0xc000
 8000c70:	9301      	str	r3, [sp, #4]
 8000c72:	9b01      	ldr	r3, [sp, #4]
 8000c74:	2302      	movs	r3, #2
 8000c76:	9307      	str	r3, [sp, #28]
 8000c78:	2001      	movs	r0, #1
 8000c7a:	2310      	movs	r3, #16
 8000c7c:	e9cd 030a 	strd	r0, r3, [sp, #40]	@ 0x28
 8000c80:	a807      	add	r0, sp, #28
 8000c82:	f000 fa61 	bl	8001148 <HAL_RCC_OscConfig>
 8000c86:	4601      	mov	r1, r0
 8000c88:	b108      	cbz	r0, 8000c8e <SystemClock_Config+0x66>
 8000c8a:	b672      	cpsid	i
 8000c8c:	e7fe      	b.n	8000c8c <SystemClock_Config+0x64>
 8000c8e:	230f      	movs	r3, #15
 8000c90:	e9cd 3002 	strd	r3, r0, [sp, #8]
 8000c94:	e9cd 0004 	strd	r0, r0, [sp, #16]
 8000c98:	9006      	str	r0, [sp, #24]
 8000c9a:	a802      	add	r0, sp, #8
 8000c9c:	f000 f972 	bl	8000f84 <HAL_RCC_ClockConfig>
 8000ca0:	b108      	cbz	r0, 8000ca6 <SystemClock_Config+0x7e>
 8000ca2:	b672      	cpsid	i
 8000ca4:	e7fe      	b.n	8000ca4 <SystemClock_Config+0x7c>
 8000ca6:	b015      	add	sp, #84	@ 0x54
 8000ca8:	f85d fb04 	ldr.w	pc, [sp], #4
 8000cac:	40023800 	.word	0x40023800
 8000cb0:	40007000 	.word	0x40007000

08000cb4 <main>:
 8000cb4:	b508      	push	{r3, lr}
 8000cb6:	f000 f8e1 	bl	8000e7c <HAL_Init>
 8000cba:	f7ff ffb5 	bl	8000c28 <SystemClock_Config>
 8000cbe:	f7ff ff9f 	bl	8000c00 <board_setup>
 8000cc2:	f7ff ff75 	bl	8000bb0 <harness_loop>
	...

08000cc8 <HAL_MspInit>:
 8000cc8:	b082      	sub	sp, #8
 8000cca:	4b0c      	ldr	r3, [pc, #48]	@ (8000cfc <HAL_MspInit+0x34>)
 8000ccc:	2100      	movs	r1, #0
 8000cce:	9100      	str	r1, [sp, #0]
 8000cd0:	6c5a      	ldr	r2, [r3, #68]	@ 0x44
 8000cd2:	f442 4280 	orr.w	r2, r2, #16384	@ 0x4000
 8000cd6:	645a      	str	r2, [r3, #68]	@ 0x44
 8000cd8:	6c5a      	ldr	r2, [r3, #68]	@ 0x44
 8000cda:	f402 4280 	and.w	r2, r2, #16384	@ 0x4000
 8000cde:	9200      	str	r2, [sp, #0]
 8000ce0:	9a00      	ldr	r2, [sp, #0]
 8000ce2:	9101      	str	r1, [sp, #4]
 8000ce4:	6c1a      	ldr	r2, [r3, #64]	@ 0x40
 8000ce6:	f042 5280 	orr.w	r2, r2, #268435456	@ 0x10000000
 8000cea:	641a      	str	r2, [r3, #64]	@ 0x40
 8000cec:	6c1b      	ldr	r3, [r3, #64]	@ 0x40
 8000cee:	f003 5380 	and.w	r3, r3, #268435456	@ 0x10000000
 8000cf2:	9301      	str	r3, [sp, #4]
 8000cf4:	9b01      	ldr	r3, [sp, #4]
 8000cf6:	b002      	add	sp, #8
 8000cf8:	4770      	bx	lr
 8000cfa:	bf00      	nop
 8000cfc:	40023800 	.word	0x40023800

08000d00 <NMI_Handler>:
 8000d00:	e7fe      	b.n	8000d00 <NMI_Handler>

08000d02 <HardFault_Handler>:
 8000d02:	be0a      	bkpt	0x000a
 8000d04:	e7fe      	b.n	8000d04 <HardFault_Handler+0x2>

08000d06 <MemManage_Handler>:
 8000d06:	e7fe      	b.n	8000d06 <MemManage_Handler>

08000d08 <BusFault_Handler>:
 8000d08:	e7fe      	b.n	8000d08 <BusFault_Handler>

08000d0a <UsageFault_Handler>:
 8000d0a:	be0a      	bkpt	0x000a
 8000d0c:	e7fe      	b.n	8000d0c <UsageFault_Handler+0x2>

08000d0e <SVC_Handler>:
 8000d0e:	4770      	bx	lr

08000d10 <DebugMon_Handler>:
 8000d10:	4770      	bx	lr

08000d12 <PendSV_Handler>:
 8000d12:	4770      	bx	lr

08000d14 <SysTick_Handler>:
 8000d14:	f000 b8cc 	b.w	8000eb0 <HAL_IncTick>

08000d18 <_getpid>:
 8000d18:	2001      	movs	r0, #1
 8000d1a:	4770      	bx	lr

08000d1c <_kill>:
 8000d1c:	b508      	push	{r3, lr}
 8000d1e:	f000 ff51 	bl	8001bc4 <__errno>
 8000d22:	2316      	movs	r3, #22
 8000d24:	6003      	str	r3, [r0, #0]
 8000d26:	f04f 30ff 	mov.w	r0, #4294967295	@ 0xffffffff
 8000d2a:	bd08      	pop	{r3, pc}

08000d2c <_exit>:
 8000d2c:	b508      	push	{r3, lr}
 8000d2e:	f000 ff49 	bl	8001bc4 <__errno>
 8000d32:	2316      	movs	r3, #22
 8000d34:	6003      	str	r3, [r0, #0]
 8000d36:	e7fe      	b.n	8000d36 <_exit+0xa>

08000d38 <_read>:
 8000d38:	b570      	push	{r4, r5, r6, lr}
 8000d3a:	460d      	mov	r5, r1
 8000d3c:	4614      	mov	r4, r2
 8000d3e:	460e      	mov	r6, r1
 8000d40:	1b73      	subs	r3, r6, r5
 8000d42:	429c      	cmp	r4, r3
 8000d44:	dc01      	bgt.n	8000d4a <_read+0x12>
 8000d46:	4620      	mov	r0, r4
 8000d48:	bd70      	pop	{r4, r5, r6, pc}
 8000d4a:	f3af 8000 	nop.w
 8000d4e:	f806 0b01 	strb.w	r0, [r6], #1
 8000d52:	e7f5      	b.n	8000d40 <_read+0x8>

08000d54 <_write>:
 8000d54:	b570      	push	{r4, r5, r6, lr}
 8000d56:	460d      	mov	r5, r1
 8000d58:	4614      	mov	r4, r2
 8000d5a:	460e      	mov	r6, r1
 8000d5c:	1b73      	subs	r3, r6, r5
 8000d5e:	429c      	cmp	r4, r3
 8000d60:	dc01      	bgt.n	8000d66 <_write+0x12>
 8000d62:	4620      	mov	r0, r4
 8000d64:	bd70      	pop	{r4, r5, r6, pc}
 8000d66:	f816 0b01 	ldrb.w	r0, [r6], #1
 8000d6a:	f3af 8000 	nop.w
 8000d6e:	e7f5      	b.n	8000d5c <_write+0x8>

08000d70 <_close>:
 8000d70:	f04f 30ff 	mov.w	r0, #4294967295	@ 0xffffffff
 8000d74:	4770      	bx	lr

08000d76 <_fstat>:
 8000d76:	f44f 5300 	mov.w	r3, #8192	@ 0x2000
 8000d7a:	604b      	str	r3, [r1, #4]
 8000d7c:	2000      	movs	r0, #0
 8000d7e:	4770      	bx	lr

08000d80 <_isatty>:
 8000d80:	2001      	movs	r0, #1
 8000d82:	4770      	bx	lr

08000d84 <_lseek>:
 8000d84:	2000      	movs	r0, #0
 8000d86:	4770      	bx	lr

08000d88 <_sbrk>:
 8000d88:	4a0b      	ldr	r2, [pc, #44]	@ (8000db8 <_sbrk+0x30>)
 8000d8a:	6811      	ldr	r1, [r2, #0]
 8000d8c:	b510      	push	{r4, lr}
 8000d8e:	4603      	mov	r3, r0
 8000d90:	b909      	cbnz	r1, 8000d96 <_sbrk+0xe>
 8000d92:	490a      	ldr	r1, [pc, #40]	@ (8000dbc <_sbrk+0x34>)
 8000d94:	6011      	str	r1, [r2, #0]
 8000d96:	6810      	ldr	r0, [r2, #0]
 8000d98:	4909      	ldr	r1, [pc, #36]	@ (8000dc0 <_sbrk+0x38>)
 8000d9a:	4c0a      	ldr	r4, [pc, #40]	@ (8000dc4 <_sbrk+0x3c>)
 8000d9c:	4403      	add	r3, r0
 8000d9e:	1b09      	subs	r1, r1, r4
 8000da0:	428b      	cmp	r3, r1
 8000da2:	d906      	bls.n	8000db2 <_sbrk+0x2a>
 8000da4:	f000 ff0e 	bl	8001bc4 <__errno>
 8000da8:	230c      	movs	r3, #12
 8000daa:	6003      	str	r3, [r0, #0]
 8000dac:	f04f 30ff 	mov.w	r0, #4294967295	@ 0xffffffff
 8000db0:	bd10      	pop	{r4, pc}
 8000db2:	6013      	str	r3, [r2, #0]
 8000db4:	e7fc      	b.n	8000db0 <_sbrk+0x28>
 8000db6:	bf00      	nop
 8000db8:	20000224 	.word	0x20000224
 8000dbc:	20000378 	.word	0x20000378
 8000dc0:	20020000 	.word	0x20020000
 8000dc4:	00000400 	.word	0x00000400

08000dc8 <SystemInit>:
 8000dc8:	4b05      	ldr	r3, [pc, #20]	@ (8000de0 <SystemInit+0x18>)
 8000dca:	f8d3 2088 	ldr.w	r2, [r3, #136]	@ 0x88
 8000dce:	f442 0270 	orr.w	r2, r2, #15728640	@ 0xf00000
 8000dd2:	f8c3 2088 	str.w	r2, [r3, #136]	@ 0x88
 8000dd6:	f04f 5200 	mov.w	r2, #536870912	@ 0x20000000
 8000dda:	609a      	str	r2, [r3, #8]
 8000ddc:	4770      	bx	lr
 8000dde:	bf00      	nop
 8000de0:	e000ed00 	.word	0xe000ed00

08000de4 <Reset_Handler>:
 8000de4:	f8df d030 	ldr.w	sp, [pc, #48]	@ 8000e18 <LoopFillZerobss+0xa>
 8000de8:	f7ff ffee 	bl	8000dc8 <SystemInit>
 8000dec:	480b      	ldr	r0, [pc, #44]	@ (8000e1c <LoopFillZerobss+0xe>)
 8000dee:	490c      	ldr	r1, [pc, #48]	@ (8000e20 <LoopFillZerobss+0x12>)
 8000df0:	4a0c      	ldr	r2, [pc, #48]	@ (8000e24 <LoopFillZerobss+0x16>)
 8000df2:	2300      	movs	r3, #0
 8000df4:	e002      	b.n	8000dfc <LoopCopyDataInit>

08000df6 <CopyDataInit>:
 8000df6:	58d4      	ldr	r4, [r2, r3]
 8000df8:	50c4      	str	r4, [r0, r3]
 8000dfa:	3304      	adds	r3, #4

08000dfc <LoopCopyDataInit>:
 8000dfc:	18c4      	adds	r4, r0, r3
 8000dfe:	428c      	cmp	r4, r1
 8000e00:	d3f9      	bcc.n	8000df6 <CopyDataInit>
 8000e02:	4a09      	ldr	r2, [pc, #36]	@ (8000e28 <LoopFillZerobss+0x1a>)
 8000e04:	4c09      	ldr	r4, [pc, #36]	@ (8000e2c <LoopFillZerobss+0x1e>)
 8000e06:	2300      	movs	r3, #0
 8000e08:	e001      	b.n	8000e0e <LoopFillZerobss>

08000e0a <FillZerobss>:
 8000e0a:	6013      	str	r3, [r2, #0]
 8000e0c:	3204      	adds	r2, #4

08000e0e <LoopFillZerobss>:
 8000e0e:	42a2      	cmp	r2, r4
 8000e10:	d3fb      	bcc.n	8000e0a <FillZerobss>
 8000e12:	f7ff ff4f 	bl	8000cb4 <main>
 8000e16:	4770      	bx	lr
 8000e18:	20020000 	.word	0x20020000
 8000e1c:	20000000 	.word	0x20000000
 8000e20:	20000068 	.word	0x20000068
 8000e24:	080026b0 	.word	0x080026b0
 8000e28:	20000068 	.word	0x20000068
 8000e2c:	20000378 	.word	0x20000378

08000e30 <ADC_IRQHandler>:
 8000e30:	e7fe      	b.n	8000e30 <ADC_IRQHandler>
	...

08000e34 <HAL_InitTick>:
 8000e34:	b538      	push	{r3, r4, r5, lr}
 8000e36:	4b0e      	ldr	r3, [pc, #56]	@ (8000e70 <HAL_InitTick+0x3c>)
 8000e38:	781a      	ldrb	r2, [r3, #0]
 8000e3a:	f44f 737a 	mov.w	r3, #1000	@ 0x3e8
 8000e3e:	fbb3 f3f2 	udiv	r3, r3, r2
 8000e42:	4a0c      	ldr	r2, [pc, #48]	@ (8000e74 <HAL_InitTick+0x40>)
 8000e44:	4605      	mov	r5, r0
 8000e46:	6810      	ldr	r0, [r2, #0]
 8000e48:	fbb0 f0f3 	udiv	r0, r0, r3
 8000e4c:	f000 f886 	bl	8000f5c <HAL_SYSTICK_Config>
 8000e50:	4604      	mov	r4, r0
 8000e52:	b958      	cbnz	r0, 8000e6c <HAL_InitTick+0x38>
 8000e54:	2d0f      	cmp	r5, #15
 8000e56:	d809      	bhi.n	8000e6c <HAL_InitTick+0x38>
 8000e58:	4602      	mov	r2, r0
 8000e5a:	4629      	mov	r1, r5
 8000e5c:	f04f 30ff 	mov.w	r0, #4294967295	@ 0xffffffff
 8000e60:	f000 f84a 	bl	8000ef8 <HAL_NVIC_SetPriority>
 8000e64:	4b04      	ldr	r3, [pc, #16]	@ (8000e78 <HAL_InitTick+0x44>)
 8000e66:	4620      	mov	r0, r4
 8000e68:	601d      	str	r5, [r3, #0]
 8000e6a:	bd38      	pop	{r3, r4, r5, pc}
 8000e6c:	2001      	movs	r0, #1
 8000e6e:	e7fc      	b.n	8000e6a <HAL_InitTick+0x36>
 8000e70:	20000004 	.word	0x20000004
 8000e74:	20000000 	.word	0x20000000
 8000e78:	20000008 	.word	0x20000008

08000e7c <HAL_Init>:
 8000e7c:	b508      	push	{r3, lr}
 8000e7e:	4b0b      	ldr	r3, [pc, #44]	@ (8000eac <HAL_Init+0x30>)
 8000e80:	681a      	ldr	r2, [r3, #0]
 8000e82:	f442 7200 	orr.w	r2, r2, #512	@ 0x200
 8000e86:	601a      	str	r2, [r3, #0]
 8000e88:	681a      	ldr	r2, [r3, #0]
 8000e8a:	f442 6280 	orr.w	r2, r2, #1024	@ 0x400
 8000e8e:	601a      	str	r2, [r3, #0]
 8000e90:	681a      	ldr	r2, [r3, #0]
 8000e92:	f442 7280 	orr.w	r2, r2, #256	@ 0x100
 8000e96:	601a      	str	r2, [r3, #0]
 8000e98:	2003      	movs	r0, #3
 8000e9a:	f000 f81b 	bl	8000ed4 <HAL_NVIC_SetPriorityGrouping>
 8000e9e:	200f      	movs	r0, #15
 8000ea0:	f7ff ffc8 	bl	8000e34 <HAL_InitTick>
 8000ea4:	f7ff ff10 	bl	8000cc8 <HAL_MspInit>
 8000ea8:	2000      	movs	r0, #0
 8000eaa:	bd08      	pop	{r3, pc}
 8000eac:	40023c00 	.word	0x40023c00

08000eb0 <HAL_IncTick>:
 8000eb0:	4a03      	ldr	r2, [pc, #12]	@ (8000ec0 <HAL_IncTick+0x10>)
 8000eb2:	4b04      	ldr	r3, [pc, #16]	@ (8000ec4 <HAL_IncTick+0x14>)
 8000eb4:	6811      	ldr	r1, [r2, #0]
 8000eb6:	781b      	ldrb	r3, [r3, #0]
 8000eb8:	440b      	add	r3, r1
 8000eba:	6013      	str	r3, [r2, #0]
 8000ebc:	4770      	bx	lr
 8000ebe:	bf00      	nop
 8000ec0:	20000228 	.word	0x20000228
 8000ec4:	20000004 	.word	0x20000004

08000ec8 <HAL_GetTick>:
 8000ec8:	4b01      	ldr	r3, [pc, #4]	@ (8000ed0 <HAL_GetTick+0x8>)
 8000eca:	6818      	ldr	r0, [r3, #0]
 8000ecc:	4770      	bx	lr
 8000ece:	bf00      	nop
 8000ed0:	20000228 	.word	0x20000228

08000ed4 <HAL_NVIC_SetPriorityGrouping>:
 8000ed4:	4907      	ldr	r1, [pc, #28]	@ (8000ef4 <HAL_NVIC_SetPriorityGrouping+0x20>)
 8000ed6:	68ca      	ldr	r2, [r1, #12]
 8000ed8:	f422 62e0 	bic.w	r2, r2, #1792	@ 0x700
 8000edc:	0203      	lsls	r3, r0, #8
 8000ede:	0412      	lsls	r2, r2, #16
 8000ee0:	f403 63e0 	and.w	r3, r3, #1792	@ 0x700
 8000ee4:	0c12      	lsrs	r2, r2, #16
 8000ee6:	4313      	orrs	r3, r2
 8000ee8:	f043 63bf 	orr.w	r3, r3, #100139008	@ 0x5f80000
 8000eec:	f443 3300 	orr.w	r3, r3, #131072	@ 0x20000
 8000ef0:	60cb      	str	r3, [r1, #12]
 8000ef2:	4770      	bx	lr
 8000ef4:	e000ed00 	.word	0xe000ed00

08000ef8 <HAL_NVIC_SetPriority>:
 8000ef8:	4b16      	ldr	r3, [pc, #88]	@ (8000f54 <HAL_NVIC_SetPriority+0x5c>)
 8000efa:	b530      	push	{r4, r5, lr}
 8000efc:	68dc      	ldr	r4, [r3, #12]
 8000efe:	f3c4 2402 	ubfx	r4, r4, #8, #3
 8000f02:	f1c4 0307 	rsb	r3, r4, #7
 8000f06:	1d25      	adds	r5, r4, #4
 8000f08:	2b04      	cmp	r3, #4
 8000f0a:	bf28      	it	cs
 8000f0c:	2304      	movcs	r3, #4
 8000f0e:	2d06      	cmp	r5, #6
 8000f10:	f04f 35ff 	mov.w	r5, #4294967295	@ 0xffffffff
 8000f14:	bf8c      	ite	hi
 8000f16:	3c03      	subhi	r4, #3
 8000f18:	2400      	movls	r4, #0
 8000f1a:	fa05 f303 	lsl.w	r3, r5, r3
 8000f1e:	ea21 0303 	bic.w	r3, r1, r3
 8000f22:	40a5      	lsls	r5, r4
 8000f24:	ea22 0205 	bic.w	r2, r2, r5
 8000f28:	40a3      	lsls	r3, r4
 8000f2a:	2800      	cmp	r0, #0
 8000f2c:	ea43 0302 	orr.w	r3, r3, r2
 8000f30:	bfac      	ite	ge
 8000f32:	f100 4060 	addge.w	r0, r0, #3758096384	@ 0xe0000000
 8000f36:	4a08      	ldrlt	r2, [pc, #32]	@ (8000f58 <HAL_NVIC_SetPriority+0x60>)
 8000f38:	ea4f 1303 	mov.w	r3, r3, lsl #4
 8000f3c:	bfb8      	it	lt
 8000f3e:	f000 000f 	andlt.w	r0, r0, #15
 8000f42:	b2db      	uxtb	r3, r3
 8000f44:	bfaa      	itet	ge
 8000f46:	f500 4061 	addge.w	r0, r0, #57600	@ 0xe100
 8000f4a:	5413      	strblt	r3, [r2, r0]
 8000f4c:	f880 3300 	strbge.w	r3, [r0, #768]	@ 0x300
 8000f50:	bd30      	pop	{r4, r5, pc}
 8000f52:	bf00      	nop
 8000f54:	e000ed00 	.word	0xe000ed00
 8000f58:	e000ed14 	.word	0xe000ed14

08000f5c <HAL_SYSTICK_Config>:
 8000f5c:	3801      	subs	r0, #1
 8000f5e:	f1b0 7f80 	cmp.w	r0, #16777216	@ 0x1000000
 8000f62:	d20b      	bcs.n	8000f7c <HAL_SYSTICK_Config+0x20>
 8000f64:	f04f 23e0 	mov.w	r3, #3758153728	@ 0xe000e000
 8000f68:	4a05      	ldr	r2, [pc, #20]	@ (8000f80 <HAL_SYSTICK_Config+0x24>)
 8000f6a:	6158      	str	r0, [r3, #20]
 8000f6c:	21f0      	movs	r1, #240	@ 0xf0
 8000f6e:	f882 1023 	strb.w	r1, [r2, #35]	@ 0x23
 8000f72:	2000      	movs	r0, #0
 8000f74:	2207      	movs	r2, #7
 8000f76:	6198      	str	r0, [r3, #24]
 8000f78:	611a      	str	r2, [r3, #16]
 8000f7a:	4770      	bx	lr
 8000f7c:	2001      	movs	r0, #1
 8000f7e:	4770      	bx	lr
 8000f80:	e000ed00 	.word	0xe000ed00

08000f84 <HAL_RCC_ClockConfig>:
 8000f84:	e92d 41f0 	stmdb	sp!, {r4, r5, r6, r7, r8, lr}
 8000f88:	460d      	mov	r5, r1
 8000f8a:	4604      	mov	r4, r0
 8000f8c:	b910      	cbnz	r0, 8000f94 <HAL_RCC_ClockConfig+0x10>
 8000f8e:	2001      	movs	r0, #1
 8000f90:	e8bd 81f0 	ldmia.w	sp!, {r4, r5, r6, r7, r8, pc}
 8000f94:	4b43      	ldr	r3, [pc, #268]	@ (80010a4 <HAL_RCC_ClockConfig+0x120>)
 8000f96:	681a      	ldr	r2, [r3, #0]
 8000f98:	f002 020f 	and.w	r2, r2, #15
 8000f9c:	428a      	cmp	r2, r1
 8000f9e:	d328      	bcc.n	8000ff2 <HAL_RCC_ClockConfig+0x6e>
 8000fa0:	6821      	ldr	r1, [r4, #0]
 8000fa2:	078f      	lsls	r7, r1, #30
 8000fa4:	d42d      	bmi.n	8001002 <HAL_RCC_ClockConfig+0x7e>
 8000fa6:	07c8      	lsls	r0, r1, #31
 8000fa8:	d440      	bmi.n	800102c <HAL_RCC_ClockConfig+0xa8>
 8000faa:	4b3e      	ldr	r3, [pc, #248]	@ (80010a4 <HAL_RCC_ClockConfig+0x120>)
 8000fac:	681a      	ldr	r2, [r3, #0]
 8000fae:	f002 020f 	and.w	r2, r2, #15
 8000fb2:	42aa      	cmp	r2, r5
 8000fb4:	d865      	bhi.n	8001082 <HAL_RCC_ClockConfig+0xfe>
 8000fb6:	6822      	ldr	r2, [r4, #0]
 8000fb8:	0751      	lsls	r1, r2, #29
 8000fba:	d46b      	bmi.n	8001094 <HAL_RCC_ClockConfig+0x110>
 8000fbc:	0713      	lsls	r3, r2, #28
 8000fbe:	d507      	bpl.n	8000fd0 <HAL_RCC_ClockConfig+0x4c>
 8000fc0:	4a39      	ldr	r2, [pc, #228]	@ (80010a8 <HAL_RCC_ClockConfig+0x124>)
 8000fc2:	6921      	ldr	r1, [r4, #16]
 8000fc4:	6893      	ldr	r3, [r2, #8]
 8000fc6:	f423 4360 	bic.w	r3, r3, #57344	@ 0xe000
 8000fca:	ea43 03c1 	orr.w	r3, r3, r1, lsl #3
 8000fce:	6093      	str	r3, [r2, #8]
 8000fd0:	f000 f872 	bl	80010b8 <HAL_RCC_GetSysClockFreq>
 8000fd4:	4b34      	ldr	r3, [pc, #208]	@ (80010a8 <HAL_RCC_ClockConfig+0x124>)
 8000fd6:	4a35      	ldr	r2, [pc, #212]	@ (80010ac <HAL_RCC_ClockConfig+0x128>)
 8000fd8:	689b      	ldr	r3, [r3, #8]
 8000fda:	f3c3 1303 	ubfx	r3, r3, #4, #4
 8000fde:	5cd3      	ldrb	r3, [r2, r3]
 8000fe0:	40d8      	lsrs	r0, r3
 8000fe2:	4b33      	ldr	r3, [pc, #204]	@ (80010b0 <HAL_RCC_ClockConfig+0x12c>)
 8000fe4:	6018      	str	r0, [r3, #0]
 8000fe6:	4b33      	ldr	r3, [pc, #204]	@ (80010b4 <HAL_RCC_ClockConfig+0x130>)
 8000fe8:	6818      	ldr	r0, [r3, #0]
 8000fea:	f7ff ff23 	bl	8000e34 <HAL_InitTick>
 8000fee:	2000      	movs	r0, #0
 8000ff0:	e7ce      	b.n	8000f90 <HAL_RCC_ClockConfig+0xc>
 8000ff2:	b2ca      	uxtb	r2, r1
 8000ff4:	701a      	strb	r2, [r3, #0]
 8000ff6:	681b      	ldr	r3, [r3, #0]
 8000ff8:	f003 030f 	and.w	r3, r3, #15
 8000ffc:	428b      	cmp	r3, r1
 8000ffe:	d1c6      	bne.n	8000f8e <HAL_RCC_ClockConfig+0xa>
 8001000:	e7ce      	b.n	8000fa0 <HAL_RCC_ClockConfig+0x1c>
 8001002:	4b29      	ldr	r3, [pc, #164]	@ (80010a8 <HAL_RCC_ClockConfig+0x124>)
 8001004:	f011 0f04 	tst.w	r1, #4
 8001008:	bf1e      	ittt	ne
 800100a:	689a      	ldrne	r2, [r3, #8]
 800100c:	f442 52e0 	orrne.w	r2, r2, #7168	@ 0x1c00
 8001010:	609a      	strne	r2, [r3, #8]
 8001012:	070e      	lsls	r6, r1, #28
 8001014:	bf42      	ittt	mi
 8001016:	689a      	ldrmi	r2, [r3, #8]
 8001018:	f442 4260 	orrmi.w	r2, r2, #57344	@ 0xe000
 800101c:	609a      	strmi	r2, [r3, #8]
 800101e:	689a      	ldr	r2, [r3, #8]
 8001020:	68a0      	ldr	r0, [r4, #8]
 8001022:	f022 02f0 	bic.w	r2, r2, #240	@ 0xf0
 8001026:	4302      	orrs	r2, r0
 8001028:	609a      	str	r2, [r3, #8]
 800102a:	e7bc      	b.n	8000fa6 <HAL_RCC_ClockConfig+0x22>
 800102c:	6862      	ldr	r2, [r4, #4]
 800102e:	4b1e      	ldr	r3, [pc, #120]	@ (80010a8 <HAL_RCC_ClockConfig+0x124>)
 8001030:	2a01      	cmp	r2, #1
 8001032:	d11c      	bne.n	800106e <HAL_RCC_ClockConfig+0xea>
 8001034:	681b      	ldr	r3, [r3, #0]
 8001036:	f413 3f00 	tst.w	r3, #131072	@ 0x20000
 800103a:	d0a8      	beq.n	8000f8e <HAL_RCC_ClockConfig+0xa>
 800103c:	4e1a      	ldr	r6, [pc, #104]	@ (80010a8 <HAL_RCC_ClockConfig+0x124>)
 800103e:	68b3      	ldr	r3, [r6, #8]
 8001040:	f023 0303 	bic.w	r3, r3, #3
 8001044:	4313      	orrs	r3, r2
 8001046:	60b3      	str	r3, [r6, #8]
 8001048:	f7ff ff3e 	bl	8000ec8 <HAL_GetTick>
 800104c:	f241 3888 	movw	r8, #5000	@ 0x1388
 8001050:	4607      	mov	r7, r0
 8001052:	68b3      	ldr	r3, [r6, #8]
 8001054:	6862      	ldr	r2, [r4, #4]
 8001056:	f003 030c 	and.w	r3, r3, #12
 800105a:	ebb3 0f82 	cmp.w	r3, r2, lsl #2
 800105e:	d0a4      	beq.n	8000faa <HAL_RCC_ClockConfig+0x26>
 8001060:	f7ff ff32 	bl	8000ec8 <HAL_GetTick>
 8001064:	1bc0      	subs	r0, r0, r7
 8001066:	4540      	cmp	r0, r8
 8001068:	d9f3      	bls.n	8001052 <HAL_RCC_ClockConfig+0xce>
 800106a:	2003      	movs	r0, #3
 800106c:	e790      	b.n	8000f90 <HAL_RCC_ClockConfig+0xc>
 800106e:	1e91      	subs	r1, r2, #2
 8001070:	2901      	cmp	r1, #1
 8001072:	681b      	ldr	r3, [r3, #0]
 8001074:	d802      	bhi.n	800107c <HAL_RCC_ClockConfig+0xf8>
 8001076:	f013 7f00 	tst.w	r3, #33554432	@ 0x2000000
 800107a:	e7de      	b.n	800103a <HAL_RCC_ClockConfig+0xb6>
 800107c:	f013 0f02 	tst.w	r3, #2
 8001080:	e7db      	b.n	800103a <HAL_RCC_ClockConfig+0xb6>
 8001082:	b2ea      	uxtb	r2, r5
 8001084:	701a      	strb	r2, [r3, #0]
 8001086:	681b      	ldr	r3, [r3, #0]
 8001088:	f003 030f 	and.w	r3, r3, #15
 800108c:	42ab      	cmp	r3, r5
 800108e:	f47f af7e 	bne.w	8000f8e <HAL_RCC_ClockConfig+0xa>
 8001092:	e790      	b.n	8000fb6 <HAL_RCC_ClockConfig+0x32>
 8001094:	4904      	ldr	r1, [pc, #16]	@ (80010a8 <HAL_RCC_ClockConfig+0x124>)
 8001096:	68e0      	ldr	r0, [r4, #12]
 8001098:	688b      	ldr	r3, [r1, #8]
 800109a:	f423 53e0 	bic.w	r3, r3, #7168	@ 0x1c00
 800109e:	4303      	orrs	r3, r0
 80010a0:	608b      	str	r3, [r1, #8]
 80010a2:	e78b      	b.n	8000fbc <HAL_RCC_ClockConfig+0x38>
 80010a4:	40023c00 	.word	0x40023c00
 80010a8:	40023800 	.word	0x40023800
 80010ac:	080025af 	.word	0x080025af
 80010b0:	20000000 	.word	0x20000000
 80010b4:	20000008 	.word	0x20000008

080010b8 <HAL_RCC_GetSysClockFreq>:
 80010b8:	4920      	ldr	r1, [pc, #128]	@ (800113c <HAL_RCC_GetSysClockFreq+0x84>)
 80010ba:	b508      	push	{r3, lr}
 80010bc:	688b      	ldr	r3, [r1, #8]
 80010be:	f003 030c 	and.w	r3, r3, #12
 80010c2:	2b08      	cmp	r3, #8
 80010c4:	d007      	beq.n	80010d6 <HAL_RCC_GetSysClockFreq+0x1e>
 80010c6:	2b0c      	cmp	r3, #12
 80010c8:	d020      	beq.n	800110c <HAL_RCC_GetSysClockFreq+0x54>
 80010ca:	481d      	ldr	r0, [pc, #116]	@ (8001140 <HAL_RCC_GetSysClockFreq+0x88>)
 80010cc:	4a1d      	ldr	r2, [pc, #116]	@ (8001144 <HAL_RCC_GetSysClockFreq+0x8c>)
 80010ce:	2b04      	cmp	r3, #4
 80010d0:	bf18      	it	ne
 80010d2:	4610      	movne	r0, r2
 80010d4:	bd08      	pop	{r3, pc}
 80010d6:	684a      	ldr	r2, [r1, #4]
 80010d8:	684b      	ldr	r3, [r1, #4]
 80010da:	6849      	ldr	r1, [r1, #4]
 80010dc:	f413 0380 	ands.w	r3, r3, #4194304	@ 0x400000
 80010e0:	bf14      	ite	ne
 80010e2:	4817      	ldrne	r0, [pc, #92]	@ (8001140 <HAL_RCC_GetSysClockFreq+0x88>)
 80010e4:	4817      	ldreq	r0, [pc, #92]	@ (8001144 <HAL_RCC_GetSysClockFreq+0x8c>)
 80010e6:	f3c1 1188 	ubfx	r1, r1, #6, #9
 80010ea:	bf18      	it	ne
 80010ec:	2300      	movne	r3, #0
 80010ee:	f002 023f 	and.w	r2, r2, #63	@ 0x3f
 80010f2:	fba1 0100 	umull	r0, r1, r1, r0
 80010f6:	f7ff f90b 	bl	8000310 <__aeabi_uldivmod>
 80010fa:	4b10      	ldr	r3, [pc, #64]	@ (800113c <HAL_RCC_GetSysClockFreq+0x84>)
 80010fc:	685b      	ldr	r3, [r3, #4]
 80010fe:	f3c3 4301 	ubfx	r3, r3, #16, #2
 8001102:	3301      	adds	r3, #1
 8001104:	005b      	lsls	r3, r3, #1
 8001106:	fbb0 f0f3 	udiv	r0, r0, r3
 800110a:	e7e3      	b.n	80010d4 <HAL_RCC_GetSysClockFreq+0x1c>
 800110c:	684a      	ldr	r2, [r1, #4]
 800110e:	684b      	ldr	r3, [r1, #4]
 8001110:	6849      	ldr	r1, [r1, #4]
 8001112:	f413 0380 	ands.w	r3, r3, #4194304	@ 0x400000
 8001116:	bf14      	ite	ne
 8001118:	4809      	ldrne	r0, [pc, #36]	@ (8001140 <HAL_RCC_GetSysClockFreq+0x88>)
 800111a:	480a      	ldreq	r0, [pc, #40]	@ (8001144 <HAL_RCC_GetSysClockFreq+0x8c>)
 800111c:	f3c1 1188 	ubfx	r1, r1, #6, #9
 8001120:	bf18      	it	ne
 8001122:	2300      	movne	r3, #0
 8001124:	f002 023f 	and.w	r2, r2, #63	@ 0x3f
 8001128:	fba1 0100 	umull	r0, r1, r1, r0
 800112c:	f7ff f8f0 	bl	8000310 <__aeabi_uldivmod>
 8001130:	4b02      	ldr	r3, [pc, #8]	@ (800113c <HAL_RCC_GetSysClockFreq+0x84>)
 8001132:	685b      	ldr	r3, [r3, #4]
 8001134:	f3c3 7302 	ubfx	r3, r3, #28, #3
 8001138:	e7e5      	b.n	8001106 <HAL_RCC_GetSysClockFreq+0x4e>
 800113a:	bf00      	nop
 800113c:	40023800 	.word	0x40023800
 8001140:	017d7840 	.word	0x017d7840
 8001144:	00f42400 	.word	0x00f42400

08001148 <HAL_RCC_OscConfig>:
 8001148:	e92d 41f3 	stmdb	sp!, {r0, r1, r4, r5, r6, r7, r8, lr}
 800114c:	4604      	mov	r4, r0
 800114e:	2800      	cmp	r0, #0
 8001150:	d031      	beq.n	80011b6 <HAL_RCC_OscConfig+0x6e>
 8001152:	6803      	ldr	r3, [r0, #0]
 8001154:	07df      	lsls	r7, r3, #31
 8001156:	d410      	bmi.n	800117a <HAL_RCC_OscConfig+0x32>
 8001158:	6823      	ldr	r3, [r4, #0]
 800115a:	079e      	lsls	r6, r3, #30
 800115c:	d467      	bmi.n	800122e <HAL_RCC_OscConfig+0xe6>
 800115e:	6823      	ldr	r3, [r4, #0]
 8001160:	0719      	lsls	r1, r3, #28
 8001162:	f100 80b2 	bmi.w	80012ca <HAL_RCC_OscConfig+0x182>
 8001166:	6823      	ldr	r3, [r4, #0]
 8001168:	075a      	lsls	r2, r3, #29
 800116a:	f100 80d2 	bmi.w	8001312 <HAL_RCC_OscConfig+0x1ca>
 800116e:	69a3      	ldr	r3, [r4, #24]
 8001170:	2b00      	cmp	r3, #0
 8001172:	f040 8139 	bne.w	80013e8 <HAL_RCC_OscConfig+0x2a0>
 8001176:	2000      	movs	r0, #0
 8001178:	e034      	b.n	80011e4 <HAL_RCC_OscConfig+0x9c>
 800117a:	4b98      	ldr	r3, [pc, #608]	@ (80013dc <HAL_RCC_OscConfig+0x294>)
 800117c:	689a      	ldr	r2, [r3, #8]
 800117e:	f002 020c 	and.w	r2, r2, #12
 8001182:	2a04      	cmp	r2, #4
 8001184:	d010      	beq.n	80011a8 <HAL_RCC_OscConfig+0x60>
 8001186:	689a      	ldr	r2, [r3, #8]
 8001188:	f002 020c 	and.w	r2, r2, #12
 800118c:	2a08      	cmp	r2, #8
 800118e:	d102      	bne.n	8001196 <HAL_RCC_OscConfig+0x4e>
 8001190:	685b      	ldr	r3, [r3, #4]
 8001192:	025d      	lsls	r5, r3, #9
 8001194:	d408      	bmi.n	80011a8 <HAL_RCC_OscConfig+0x60>
 8001196:	4b91      	ldr	r3, [pc, #580]	@ (80013dc <HAL_RCC_OscConfig+0x294>)
 8001198:	689a      	ldr	r2, [r3, #8]
 800119a:	f002 020c 	and.w	r2, r2, #12
 800119e:	2a0c      	cmp	r2, #12
 80011a0:	d10b      	bne.n	80011ba <HAL_RCC_OscConfig+0x72>
 80011a2:	685a      	ldr	r2, [r3, #4]
 80011a4:	0251      	lsls	r1, r2, #9
 80011a6:	d508      	bpl.n	80011ba <HAL_RCC_OscConfig+0x72>
 80011a8:	4b8c      	ldr	r3, [pc, #560]	@ (80013dc <HAL_RCC_OscConfig+0x294>)
 80011aa:	681b      	ldr	r3, [r3, #0]
 80011ac:	039a      	lsls	r2, r3, #14
 80011ae:	d5d3      	bpl.n	8001158 <HAL_RCC_OscConfig+0x10>
 80011b0:	6863      	ldr	r3, [r4, #4]
 80011b2:	2b00      	cmp	r3, #0
 80011b4:	d1d0      	bne.n	8001158 <HAL_RCC_OscConfig+0x10>
 80011b6:	2001      	movs	r0, #1
 80011b8:	e014      	b.n	80011e4 <HAL_RCC_OscConfig+0x9c>
 80011ba:	6862      	ldr	r2, [r4, #4]
 80011bc:	f5b2 3f80 	cmp.w	r2, #65536	@ 0x10000
 80011c0:	d113      	bne.n	80011ea <HAL_RCC_OscConfig+0xa2>
 80011c2:	681a      	ldr	r2, [r3, #0]
 80011c4:	f442 3280 	orr.w	r2, r2, #65536	@ 0x10000
 80011c8:	601a      	str	r2, [r3, #0]
 80011ca:	f7ff fe7d 	bl	8000ec8 <HAL_GetTick>
 80011ce:	4e83      	ldr	r6, [pc, #524]	@ (80013dc <HAL_RCC_OscConfig+0x294>)
 80011d0:	4605      	mov	r5, r0
 80011d2:	6833      	ldr	r3, [r6, #0]
 80011d4:	039b      	lsls	r3, r3, #14
 80011d6:	d4bf      	bmi.n	8001158 <HAL_RCC_OscConfig+0x10>
 80011d8:	f7ff fe76 	bl	8000ec8 <HAL_GetTick>
 80011dc:	1b40      	subs	r0, r0, r5
 80011de:	2864      	cmp	r0, #100	@ 0x64
 80011e0:	d9f7      	bls.n	80011d2 <HAL_RCC_OscConfig+0x8a>
 80011e2:	2003      	movs	r0, #3
 80011e4:	b002      	add	sp, #8
 80011e6:	e8bd 81f0 	ldmia.w	sp!, {r4, r5, r6, r7, r8, pc}
 80011ea:	4d7c      	ldr	r5, [pc, #496]	@ (80013dc <HAL_RCC_OscConfig+0x294>)
 80011ec:	f5b2 2fa0 	cmp.w	r2, #327680	@ 0x50000
 80011f0:	682b      	ldr	r3, [r5, #0]
 80011f2:	d107      	bne.n	8001204 <HAL_RCC_OscConfig+0xbc>
 80011f4:	f443 2380 	orr.w	r3, r3, #262144	@ 0x40000
 80011f8:	602b      	str	r3, [r5, #0]
 80011fa:	682b      	ldr	r3, [r5, #0]
 80011fc:	f443 3380 	orr.w	r3, r3, #65536	@ 0x10000
 8001200:	602b      	str	r3, [r5, #0]
 8001202:	e7e2      	b.n	80011ca <HAL_RCC_OscConfig+0x82>
 8001204:	f423 3380 	bic.w	r3, r3, #65536	@ 0x10000
 8001208:	602b      	str	r3, [r5, #0]
 800120a:	682b      	ldr	r3, [r5, #0]
 800120c:	f423 2380 	bic.w	r3, r3, #262144	@ 0x40000
 8001210:	602b      	str	r3, [r5, #0]
 8001212:	2a00      	cmp	r2, #0
 8001214:	d1d9      	bne.n	80011ca <HAL_RCC_OscConfig+0x82>
 8001216:	f7ff fe57 	bl	8000ec8 <HAL_GetTick>
 800121a:	4606      	mov	r6, r0
 800121c:	682b      	ldr	r3, [r5, #0]
 800121e:	039f      	lsls	r7, r3, #14
 8001220:	d59a      	bpl.n	8001158 <HAL_RCC_OscConfig+0x10>
 8001222:	f7ff fe51 	bl	8000ec8 <HAL_GetTick>
 8001226:	1b80      	subs	r0, r0, r6
 8001228:	2864      	cmp	r0, #100	@ 0x64
 800122a:	d9f7      	bls.n	800121c <HAL_RCC_OscConfig+0xd4>
 800122c:	e7d9      	b.n	80011e2 <HAL_RCC_OscConfig+0x9a>
 800122e:	4b6b      	ldr	r3, [pc, #428]	@ (80013dc <HAL_RCC_OscConfig+0x294>)
 8001230:	689a      	ldr	r2, [r3, #8]
 8001232:	f012 0f0c 	tst.w	r2, #12
 8001236:	d010      	beq.n	800125a <HAL_RCC_OscConfig+0x112>
 8001238:	689a      	ldr	r2, [r3, #8]
 800123a:	f002 020c 	and.w	r2, r2, #12
 800123e:	2a08      	cmp	r2, #8
 8001240:	d102      	bne.n	8001248 <HAL_RCC_OscConfig+0x100>
 8001242:	685b      	ldr	r3, [r3, #4]
 8001244:	025e      	lsls	r6, r3, #9
 8001246:	d508      	bpl.n	800125a <HAL_RCC_OscConfig+0x112>
 8001248:	4a64      	ldr	r2, [pc, #400]	@ (80013dc <HAL_RCC_OscConfig+0x294>)
 800124a:	6893      	ldr	r3, [r2, #8]
 800124c:	f003 030c 	and.w	r3, r3, #12
 8001250:	2b0c      	cmp	r3, #12
 8001252:	d111      	bne.n	8001278 <HAL_RCC_OscConfig+0x130>
 8001254:	6853      	ldr	r3, [r2, #4]
 8001256:	025d      	lsls	r5, r3, #9
 8001258:	d40e      	bmi.n	8001278 <HAL_RCC_OscConfig+0x130>
 800125a:	4a60      	ldr	r2, [pc, #384]	@ (80013dc <HAL_RCC_OscConfig+0x294>)
 800125c:	6813      	ldr	r3, [r2, #0]
 800125e:	0799      	lsls	r1, r3, #30
 8001260:	d502      	bpl.n	8001268 <HAL_RCC_OscConfig+0x120>
 8001262:	68e3      	ldr	r3, [r4, #12]
 8001264:	2b01      	cmp	r3, #1
 8001266:	d1a6      	bne.n	80011b6 <HAL_RCC_OscConfig+0x6e>
 8001268:	6813      	ldr	r3, [r2, #0]
 800126a:	6921      	ldr	r1, [r4, #16]
 800126c:	f023 03f8 	bic.w	r3, r3, #248	@ 0xf8
 8001270:	ea43 03c1 	orr.w	r3, r3, r1, lsl #3
 8001274:	6013      	str	r3, [r2, #0]
 8001276:	e772      	b.n	800115e <HAL_RCC_OscConfig+0x16>
 8001278:	68e2      	ldr	r2, [r4, #12]
 800127a:	4b59      	ldr	r3, [pc, #356]	@ (80013e0 <HAL_RCC_OscConfig+0x298>)
 800127c:	b1b2      	cbz	r2, 80012ac <HAL_RCC_OscConfig+0x164>
 800127e:	2201      	movs	r2, #1
 8001280:	601a      	str	r2, [r3, #0]
 8001282:	f7ff fe21 	bl	8000ec8 <HAL_GetTick>
 8001286:	4d55      	ldr	r5, [pc, #340]	@ (80013dc <HAL_RCC_OscConfig+0x294>)
 8001288:	4606      	mov	r6, r0
 800128a:	682b      	ldr	r3, [r5, #0]
 800128c:	079b      	lsls	r3, r3, #30
 800128e:	d507      	bpl.n	80012a0 <HAL_RCC_OscConfig+0x158>
 8001290:	682b      	ldr	r3, [r5, #0]
 8001292:	6922      	ldr	r2, [r4, #16]
 8001294:	f023 03f8 	bic.w	r3, r3, #248	@ 0xf8
 8001298:	ea43 03c2 	orr.w	r3, r3, r2, lsl #3
 800129c:	602b      	str	r3, [r5, #0]
 800129e:	e75e      	b.n	800115e <HAL_RCC_OscConfig+0x16>
 80012a0:	f7ff fe12 	bl	8000ec8 <HAL_GetTick>
 80012a4:	1b80      	subs	r0, r0, r6
 80012a6:	2802      	cmp	r0, #2
 80012a8:	d9ef      	bls.n	800128a <HAL_RCC_OscConfig+0x142>
 80012aa:	e79a      	b.n	80011e2 <HAL_RCC_OscConfig+0x9a>
 80012ac:	601a      	str	r2, [r3, #0]
 80012ae:	f7ff fe0b 	bl	8000ec8 <HAL_GetTick>
 80012b2:	4e4a      	ldr	r6, [pc, #296]	@ (80013dc <HAL_RCC_OscConfig+0x294>)
 80012b4:	4605      	mov	r5, r0
 80012b6:	6833      	ldr	r3, [r6, #0]
 80012b8:	079f      	lsls	r7, r3, #30
 80012ba:	f57f af50 	bpl.w	800115e <HAL_RCC_OscConfig+0x16>
 80012be:	f7ff fe03 	bl	8000ec8 <HAL_GetTick>
 80012c2:	1b40      	subs	r0, r0, r5
 80012c4:	2802      	cmp	r0, #2
 80012c6:	d9f6      	bls.n	80012b6 <HAL_RCC_OscConfig+0x16e>
 80012c8:	e78b      	b.n	80011e2 <HAL_RCC_OscConfig+0x9a>
 80012ca:	6962      	ldr	r2, [r4, #20]
 80012cc:	4b44      	ldr	r3, [pc, #272]	@ (80013e0 <HAL_RCC_OscConfig+0x298>)
 80012ce:	b182      	cbz	r2, 80012f2 <HAL_RCC_OscConfig+0x1aa>
 80012d0:	2201      	movs	r2, #1
 80012d2:	f8c3 2e80 	str.w	r2, [r3, #3712]	@ 0xe80
 80012d6:	f7ff fdf7 	bl	8000ec8 <HAL_GetTick>
 80012da:	4e40      	ldr	r6, [pc, #256]	@ (80013dc <HAL_RCC_OscConfig+0x294>)
 80012dc:	4605      	mov	r5, r0
 80012de:	6f73      	ldr	r3, [r6, #116]	@ 0x74
 80012e0:	079b      	lsls	r3, r3, #30
 80012e2:	f53f af40 	bmi.w	8001166 <HAL_RCC_OscConfig+0x1e>
 80012e6:	f7ff fdef 	bl	8000ec8 <HAL_GetTick>
 80012ea:	1b40      	subs	r0, r0, r5
 80012ec:	2802      	cmp	r0, #2
 80012ee:	d9f6      	bls.n	80012de <HAL_RCC_OscConfig+0x196>
 80012f0:	e777      	b.n	80011e2 <HAL_RCC_OscConfig+0x9a>
 80012f2:	f8c3 2e80 	str.w	r2, [r3, #3712]	@ 0xe80
 80012f6:	f7ff fde7 	bl	8000ec8 <HAL_GetTick>
 80012fa:	4e38      	ldr	r6, [pc, #224]	@ (80013dc <HAL_RCC_OscConfig+0x294>)
 80012fc:	4605      	mov	r5, r0
 80012fe:	6f73      	ldr	r3, [r6, #116]	@ 0x74
 8001300:	079f      	lsls	r7, r3, #30
 8001302:	f57f af30 	bpl.w	8001166 <HAL_RCC_OscConfig+0x1e>
 8001306:	f7ff fddf 	bl	8000ec8 <HAL_GetTick>
 800130a:	1b40      	subs	r0, r0, r5
 800130c:	2802      	cmp	r0, #2
 800130e:	d9f6      	bls.n	80012fe <HAL_RCC_OscConfig+0x1b6>
 8001310:	e767      	b.n	80011e2 <HAL_RCC_OscConfig+0x9a>
 8001312:	4b32      	ldr	r3, [pc, #200]	@ (80013dc <HAL_RCC_OscConfig+0x294>)
 8001314:	6c1a      	ldr	r2, [r3, #64]	@ 0x40
 8001316:	f012 5280 	ands.w	r2, r2, #268435456	@ 0x10000000
 800131a:	d128      	bne.n	800136e <HAL_RCC_OscConfig+0x226>
 800131c:	9201      	str	r2, [sp, #4]
 800131e:	6c1a      	ldr	r2, [r3, #64]	@ 0x40
 8001320:	f042 5280 	orr.w	r2, r2, #268435456	@ 0x10000000
 8001324:	641a      	str	r2, [r3, #64]	@ 0x40
 8001326:	6c1b      	ldr	r3, [r3, #64]	@ 0x40
 8001328:	f003 5380 	and.w	r3, r3, #268435456	@ 0x10000000
 800132c:	9301      	str	r3, [sp, #4]
 800132e:	9b01      	ldr	r3, [sp, #4]
 8001330:	2701      	movs	r7, #1
 8001332:	4d2c      	ldr	r5, [pc, #176]	@ (80013e4 <HAL_RCC_OscConfig+0x29c>)
 8001334:	682b      	ldr	r3, [r5, #0]
 8001336:	05d8      	lsls	r0, r3, #23
 8001338:	d51b      	bpl.n	8001372 <HAL_RCC_OscConfig+0x22a>
 800133a:	68a3      	ldr	r3, [r4, #8]
 800133c:	4d27      	ldr	r5, [pc, #156]	@ (80013dc <HAL_RCC_OscConfig+0x294>)
 800133e:	2b01      	cmp	r3, #1
 8001340:	d127      	bne.n	8001392 <HAL_RCC_OscConfig+0x24a>
 8001342:	6f2b      	ldr	r3, [r5, #112]	@ 0x70
 8001344:	f043 0301 	orr.w	r3, r3, #1
 8001348:	672b      	str	r3, [r5, #112]	@ 0x70
 800134a:	f7ff fdbd 	bl	8000ec8 <HAL_GetTick>
 800134e:	4e23      	ldr	r6, [pc, #140]	@ (80013dc <HAL_RCC_OscConfig+0x294>)
 8001350:	4605      	mov	r5, r0
 8001352:	f241 3888 	movw	r8, #5000	@ 0x1388
 8001356:	6f33      	ldr	r3, [r6, #112]	@ 0x70
 8001358:	079a      	lsls	r2, r3, #30
 800135a:	d539      	bpl.n	80013d0 <HAL_RCC_OscConfig+0x288>
 800135c:	2f00      	cmp	r7, #0
 800135e:	f43f af06 	beq.w	800116e <HAL_RCC_OscConfig+0x26>
 8001362:	4a1e      	ldr	r2, [pc, #120]	@ (80013dc <HAL_RCC_OscConfig+0x294>)
 8001364:	6c13      	ldr	r3, [r2, #64]	@ 0x40
 8001366:	f023 5380 	bic.w	r3, r3, #268435456	@ 0x10000000
 800136a:	6413      	str	r3, [r2, #64]	@ 0x40
 800136c:	e6ff      	b.n	800116e <HAL_RCC_OscConfig+0x26>
 800136e:	2700      	movs	r7, #0
 8001370:	e7df      	b.n	8001332 <HAL_RCC_OscConfig+0x1ea>
 8001372:	682b      	ldr	r3, [r5, #0]
 8001374:	f443 7380 	orr.w	r3, r3, #256	@ 0x100
 8001378:	602b      	str	r3, [r5, #0]
 800137a:	f7ff fda5 	bl	8000ec8 <HAL_GetTick>
 800137e:	4606      	mov	r6, r0
 8001380:	682b      	ldr	r3, [r5, #0]
 8001382:	05d9      	lsls	r1, r3, #23
 8001384:	d4d9      	bmi.n	800133a <HAL_RCC_OscConfig+0x1f2>
 8001386:	f7ff fd9f 	bl	8000ec8 <HAL_GetTick>
 800138a:	1b80      	subs	r0, r0, r6
 800138c:	2802      	cmp	r0, #2
 800138e:	d9f7      	bls.n	8001380 <HAL_RCC_OscConfig+0x238>
 8001390:	e727      	b.n	80011e2 <HAL_RCC_OscConfig+0x9a>
 8001392:	2b05      	cmp	r3, #5
 8001394:	d104      	bne.n	80013a0 <HAL_RCC_OscConfig+0x258>
 8001396:	6f2b      	ldr	r3, [r5, #112]	@ 0x70
 8001398:	f043 0304 	orr.w	r3, r3, #4
 800139c:	672b      	str	r3, [r5, #112]	@ 0x70
 800139e:	e7d0      	b.n	8001342 <HAL_RCC_OscConfig+0x1fa>
 80013a0:	6f2a      	ldr	r2, [r5, #112]	@ 0x70
 80013a2:	f022 0201 	bic.w	r2, r2, #1
 80013a6:	672a      	str	r2, [r5, #112]	@ 0x70
 80013a8:	6f2a      	ldr	r2, [r5, #112]	@ 0x70
 80013aa:	f022 0204 	bic.w	r2, r2, #4
 80013ae:	672a      	str	r2, [r5, #112]	@ 0x70
 80013b0:	2b00      	cmp	r3, #0
 80013b2:	d1ca      	bne.n	800134a <HAL_RCC_OscConfig+0x202>
 80013b4:	f7ff fd88 	bl	8000ec8 <HAL_GetTick>
 80013b8:	f241 3888 	movw	r8, #5000	@ 0x1388
 80013bc:	4606      	mov	r6, r0
 80013be:	6f2b      	ldr	r3, [r5, #112]	@ 0x70
 80013c0:	079b      	lsls	r3, r3, #30
 80013c2:	d5cb      	bpl.n	800135c <HAL_RCC_OscConfig+0x214>
 80013c4:	f7ff fd80 	bl	8000ec8 <HAL_GetTick>
 80013c8:	1b80      	subs	r0, r0, r6
 80013ca:	4540      	cmp	r0, r8
 80013cc:	d9f7      	bls.n	80013be <HAL_RCC_OscConfig+0x276>
 80013ce:	e708      	b.n	80011e2 <HAL_RCC_OscConfig+0x9a>
 80013d0:	f7ff fd7a 	bl	8000ec8 <HAL_GetTick>
 80013d4:	1b40      	subs	r0, r0, r5
 80013d6:	4540      	cmp	r0, r8
 80013d8:	d9bd      	bls.n	8001356 <HAL_RCC_OscConfig+0x20e>
 80013da:	e702      	b.n	80011e2 <HAL_RCC_OscConfig+0x9a>
 80013dc:	40023800 	.word	0x40023800
 80013e0:	42470000 	.word	0x42470000
 80013e4:	40007000 	.word	0x40007000
 80013e8:	4d3c      	ldr	r5, [pc, #240]	@ (80014dc <HAL_RCC_OscConfig+0x394>)
 80013ea:	68aa      	ldr	r2, [r5, #8]
 80013ec:	f002 020c 	and.w	r2, r2, #12
 80013f0:	2a08      	cmp	r2, #8
 80013f2:	d041      	beq.n	8001478 <HAL_RCC_OscConfig+0x330>
 80013f4:	2b02      	cmp	r3, #2
 80013f6:	4b3a      	ldr	r3, [pc, #232]	@ (80014e0 <HAL_RCC_OscConfig+0x398>)
 80013f8:	f04f 0200 	mov.w	r2, #0
 80013fc:	661a      	str	r2, [r3, #96]	@ 0x60
 80013fe:	d12e      	bne.n	800145e <HAL_RCC_OscConfig+0x316>
 8001400:	f7ff fd62 	bl	8000ec8 <HAL_GetTick>
 8001404:	4606      	mov	r6, r0
 8001406:	682b      	ldr	r3, [r5, #0]
 8001408:	0199      	lsls	r1, r3, #6
 800140a:	d422      	bmi.n	8001452 <HAL_RCC_OscConfig+0x30a>
 800140c:	e9d4 3207 	ldrd	r3, r2, [r4, #28]
 8001410:	4313      	orrs	r3, r2
 8001412:	6a62      	ldr	r2, [r4, #36]	@ 0x24
 8001414:	ea43 1382 	orr.w	r3, r3, r2, lsl #6
 8001418:	6ae2      	ldr	r2, [r4, #44]	@ 0x2c
 800141a:	ea43 6302 	orr.w	r3, r3, r2, lsl #24
 800141e:	6b22      	ldr	r2, [r4, #48]	@ 0x30
 8001420:	ea43 7302 	orr.w	r3, r3, r2, lsl #28
 8001424:	6aa2      	ldr	r2, [r4, #40]	@ 0x28
 8001426:	0852      	lsrs	r2, r2, #1
 8001428:	3a01      	subs	r2, #1
 800142a:	ea43 4302 	orr.w	r3, r3, r2, lsl #16
 800142e:	606b      	str	r3, [r5, #4]
 8001430:	4b2b      	ldr	r3, [pc, #172]	@ (80014e0 <HAL_RCC_OscConfig+0x398>)
 8001432:	4d2a      	ldr	r5, [pc, #168]	@ (80014dc <HAL_RCC_OscConfig+0x394>)
 8001434:	2201      	movs	r2, #1
 8001436:	661a      	str	r2, [r3, #96]	@ 0x60
 8001438:	f7ff fd46 	bl	8000ec8 <HAL_GetTick>
 800143c:	4604      	mov	r4, r0
 800143e:	682b      	ldr	r3, [r5, #0]
 8001440:	019a      	lsls	r2, r3, #6
 8001442:	f53f ae98 	bmi.w	8001176 <HAL_RCC_OscConfig+0x2e>
 8001446:	f7ff fd3f 	bl	8000ec8 <HAL_GetTick>
 800144a:	1b00      	subs	r0, r0, r4
 800144c:	2802      	cmp	r0, #2
 800144e:	d9f6      	bls.n	800143e <HAL_RCC_OscConfig+0x2f6>
 8001450:	e6c7      	b.n	80011e2 <HAL_RCC_OscConfig+0x9a>
 8001452:	f7ff fd39 	bl	8000ec8 <HAL_GetTick>
 8001456:	1b80      	subs	r0, r0, r6
 8001458:	2802      	cmp	r0, #2
 800145a:	d9d4      	bls.n	8001406 <HAL_RCC_OscConfig+0x2be>
 800145c:	e6c1      	b.n	80011e2 <HAL_RCC_OscConfig+0x9a>
 800145e:	f7ff fd33 	bl	8000ec8 <HAL_GetTick>
 8001462:	4604      	mov	r4, r0
 8001464:	682b      	ldr	r3, [r5, #0]
 8001466:	019b      	lsls	r3, r3, #6
 8001468:	f57f ae85 	bpl.w	8001176 <HAL_RCC_OscConfig+0x2e>
 800146c:	f7ff fd2c 	bl	8000ec8 <HAL_GetTick>
 8001470:	1b00      	subs	r0, r0, r4
 8001472:	2802      	cmp	r0, #2
 8001474:	d9f6      	bls.n	8001464 <HAL_RCC_OscConfig+0x31c>
 8001476:	e6b4      	b.n	80011e2 <HAL_RCC_OscConfig+0x9a>
 8001478:	2b01      	cmp	r3, #1
 800147a:	f43f ae9c 	beq.w	80011b6 <HAL_RCC_OscConfig+0x6e>
 800147e:	686b      	ldr	r3, [r5, #4]
 8001480:	69e2      	ldr	r2, [r4, #28]
 8001482:	f403 0180 	and.w	r1, r3, #4194304	@ 0x400000
 8001486:	4291      	cmp	r1, r2
 8001488:	f47f ae95 	bne.w	80011b6 <HAL_RCC_OscConfig+0x6e>
 800148c:	6a21      	ldr	r1, [r4, #32]
 800148e:	f003 023f 	and.w	r2, r3, #63	@ 0x3f
 8001492:	428a      	cmp	r2, r1
 8001494:	f47f ae8f 	bne.w	80011b6 <HAL_RCC_OscConfig+0x6e>
 8001498:	6a61      	ldr	r1, [r4, #36]	@ 0x24
 800149a:	f647 72c0 	movw	r2, #32704	@ 0x7fc0
 800149e:	401a      	ands	r2, r3
 80014a0:	ebb2 1f81 	cmp.w	r2, r1, lsl #6
 80014a4:	f47f ae87 	bne.w	80011b6 <HAL_RCC_OscConfig+0x6e>
 80014a8:	6aa2      	ldr	r2, [r4, #40]	@ 0x28
 80014aa:	0852      	lsrs	r2, r2, #1
 80014ac:	f403 3140 	and.w	r1, r3, #196608	@ 0x30000
 80014b0:	3a01      	subs	r2, #1
 80014b2:	ebb1 4f02 	cmp.w	r1, r2, lsl #16
 80014b6:	f47f ae7e 	bne.w	80011b6 <HAL_RCC_OscConfig+0x6e>
 80014ba:	6ae1      	ldr	r1, [r4, #44]	@ 0x2c
 80014bc:	f003 6270 	and.w	r2, r3, #251658240	@ 0xf000000
 80014c0:	ebb2 6f01 	cmp.w	r2, r1, lsl #24
 80014c4:	f47f ae77 	bne.w	80011b6 <HAL_RCC_OscConfig+0x6e>
 80014c8:	6b22      	ldr	r2, [r4, #48]	@ 0x30
 80014ca:	f003 43e0 	and.w	r3, r3, #1879048192	@ 0x70000000
 80014ce:	ebb3 7f02 	cmp.w	r3, r2, lsl #28
 80014d2:	bf14      	ite	ne
 80014d4:	2001      	movne	r0, #1
 80014d6:	2000      	moveq	r0, #0
 80014d8:	e684      	b.n	80011e4 <HAL_RCC_OscConfig+0x9c>
 80014da:	bf00      	nop
 80014dc:	40023800 	.word	0x40023800
 80014e0:	42470000 	.word	0x42470000

080014e4 <calloc>:
 80014e4:	4b02      	ldr	r3, [pc, #8]	@ (80014f0 <calloc+0xc>)
 80014e6:	460a      	mov	r2, r1
 80014e8:	4601      	mov	r1, r0
 80014ea:	6818      	ldr	r0, [r3, #0]
 80014ec:	f000 b802 	b.w	80014f4 <_calloc_r>
 80014f0:	20000018 	.word	0x20000018

080014f4 <_calloc_r>:
 80014f4:	b570      	push	{r4, r5, r6, lr}
 80014f6:	fba1 5402 	umull	r5, r4, r1, r2
 80014fa:	b93c      	cbnz	r4, 800150c <_calloc_r+0x18>
 80014fc:	4629      	mov	r1, r5
 80014fe:	f000 f841 	bl	8001584 <_malloc_r>
 8001502:	4606      	mov	r6, r0
 8001504:	b928      	cbnz	r0, 8001512 <_calloc_r+0x1e>
 8001506:	2600      	movs	r6, #0
 8001508:	4630      	mov	r0, r6
 800150a:	bd70      	pop	{r4, r5, r6, pc}
 800150c:	220c      	movs	r2, #12
 800150e:	6002      	str	r2, [r0, #0]
 8001510:	e7f9      	b.n	8001506 <_calloc_r+0x12>
 8001512:	462a      	mov	r2, r5
 8001514:	4621      	mov	r1, r4
 8001516:	f000 faf7 	bl	8001b08 <memset>
 800151a:	e7f5      	b.n	8001508 <_calloc_r+0x14>

0800151c <exit>:
 800151c:	b508      	push	{r3, lr}
 800151e:	4b06      	ldr	r3, [pc, #24]	@ (8001538 <exit+0x1c>)
 8001520:	4604      	mov	r4, r0
 8001522:	b113      	cbz	r3, 800152a <exit+0xe>
 8001524:	2100      	movs	r1, #0
 8001526:	f3af 8000 	nop.w
 800152a:	4b04      	ldr	r3, [pc, #16]	@ (800153c <exit+0x20>)
 800152c:	681b      	ldr	r3, [r3, #0]
 800152e:	b103      	cbz	r3, 8001532 <exit+0x16>
 8001530:	4798      	blx	r3
 8001532:	4620      	mov	r0, r4
 8001534:	f7ff fbfa 	bl	8000d2c <_exit>
 8001538:	00000000 	.word	0x00000000
 800153c:	2000036c 	.word	0x2000036c

08001540 <sbrk_aligned>:
 8001540:	b570      	push	{r4, r5, r6, lr}
 8001542:	4e0f      	ldr	r6, [pc, #60]	@ (8001580 <sbrk_aligned+0x40>)
 8001544:	460c      	mov	r4, r1
 8001546:	6831      	ldr	r1, [r6, #0]
 8001548:	4605      	mov	r5, r0
 800154a:	b911      	cbnz	r1, 8001552 <sbrk_aligned+0x12>
 800154c:	f000 fb18 	bl	8001b80 <_sbrk_r>
 8001550:	6030      	str	r0, [r6, #0]
 8001552:	4621      	mov	r1, r4
 8001554:	4628      	mov	r0, r5
 8001556:	f000 fb13 	bl	8001b80 <_sbrk_r>
 800155a:	1c43      	adds	r3, r0, #1
 800155c:	d103      	bne.n	8001566 <sbrk_aligned+0x26>
 800155e:	f04f 34ff 	mov.w	r4, #4294967295	@ 0xffffffff
 8001562:	4620      	mov	r0, r4
 8001564:	bd70      	pop	{r4, r5, r6, pc}
 8001566:	1cc4      	adds	r4, r0, #3
 8001568:	f024 0403 	bic.w	r4, r4, #3
 800156c:	42a0      	cmp	r0, r4
 800156e:	d0f8      	beq.n	8001562 <sbrk_aligned+0x22>
 8001570:	1a21      	subs	r1, r4, r0
 8001572:	4628      	mov	r0, r5
 8001574:	f000 fb04 	bl	8001b80 <_sbrk_r>
 8001578:	3001      	adds	r0, #1
 800157a:	d1f2      	bne.n	8001562 <sbrk_aligned+0x22>
 800157c:	e7ef      	b.n	800155e <sbrk_aligned+0x1e>
 800157e:	bf00      	nop
 8001580:	2000022c 	.word	0x2000022c

08001584 <_malloc_r>:
 8001584:	e92d 43f8 	stmdb	sp!, {r3, r4, r5, r6, r7, r8, r9, lr}
 8001588:	1ccd      	adds	r5, r1, #3
 800158a:	f025 0503 	bic.w	r5, r5, #3
 800158e:	3508      	adds	r5, #8
 8001590:	2d0c      	cmp	r5, #12
 8001592:	bf38      	it	cc
 8001594:	250c      	movcc	r5, #12
 8001596:	2d00      	cmp	r5, #0
 8001598:	4606      	mov	r6, r0
 800159a:	db01      	blt.n	80015a0 <_malloc_r+0x1c>
 800159c:	42a9      	cmp	r1, r5
 800159e:	d904      	bls.n	80015aa <_malloc_r+0x26>
 80015a0:	230c      	movs	r3, #12
 80015a2:	6033      	str	r3, [r6, #0]
 80015a4:	2000      	movs	r0, #0
 80015a6:	e8bd 83f8 	ldmia.w	sp!, {r3, r4, r5, r6, r7, r8, r9, pc}
 80015aa:	f8df 80d4 	ldr.w	r8, [pc, #212]	@ 8001680 <_malloc_r+0xfc>
 80015ae:	f000 f869 	bl	8001684 <__malloc_lock>
 80015b2:	f8d8 3000 	ldr.w	r3, [r8]
 80015b6:	461c      	mov	r4, r3
 80015b8:	bb44      	cbnz	r4, 800160c <_malloc_r+0x88>
 80015ba:	4629      	mov	r1, r5
 80015bc:	4630      	mov	r0, r6
 80015be:	f7ff ffbf 	bl	8001540 <sbrk_aligned>
 80015c2:	1c43      	adds	r3, r0, #1
 80015c4:	4604      	mov	r4, r0
 80015c6:	d158      	bne.n	800167a <_malloc_r+0xf6>
 80015c8:	f8d8 4000 	ldr.w	r4, [r8]
 80015cc:	4627      	mov	r7, r4
 80015ce:	2f00      	cmp	r7, #0
 80015d0:	d143      	bne.n	800165a <_malloc_r+0xd6>
 80015d2:	2c00      	cmp	r4, #0
 80015d4:	d04b      	beq.n	800166e <_malloc_r+0xea>
 80015d6:	6823      	ldr	r3, [r4, #0]
 80015d8:	4639      	mov	r1, r7
 80015da:	4630      	mov	r0, r6
 80015dc:	eb04 0903 	add.w	r9, r4, r3
 80015e0:	f000 face 	bl	8001b80 <_sbrk_r>
 80015e4:	4581      	cmp	r9, r0
 80015e6:	d142      	bne.n	800166e <_malloc_r+0xea>
 80015e8:	6821      	ldr	r1, [r4, #0]
 80015ea:	1a6d      	subs	r5, r5, r1
 80015ec:	4629      	mov	r1, r5
 80015ee:	4630      	mov	r0, r6
 80015f0:	f7ff ffa6 	bl	8001540 <sbrk_aligned>
 80015f4:	3001      	adds	r0, #1
 80015f6:	d03a      	beq.n	800166e <_malloc_r+0xea>
 80015f8:	6823      	ldr	r3, [r4, #0]
 80015fa:	442b      	add	r3, r5
 80015fc:	6023      	str	r3, [r4, #0]
 80015fe:	f8d8 3000 	ldr.w	r3, [r8]
 8001602:	685a      	ldr	r2, [r3, #4]
 8001604:	bb62      	cbnz	r2, 8001660 <_malloc_r+0xdc>
 8001606:	f8c8 7000 	str.w	r7, [r8]
 800160a:	e00f      	b.n	800162c <_malloc_r+0xa8>
 800160c:	6822      	ldr	r2, [r4, #0]
 800160e:	1b52      	subs	r2, r2, r5
 8001610:	d420      	bmi.n	8001654 <_malloc_r+0xd0>
 8001612:	2a0b      	cmp	r2, #11
 8001614:	d917      	bls.n	8001646 <_malloc_r+0xc2>
 8001616:	1961      	adds	r1, r4, r5
 8001618:	42a3      	cmp	r3, r4
 800161a:	6025      	str	r5, [r4, #0]
 800161c:	bf18      	it	ne
 800161e:	6059      	strne	r1, [r3, #4]
 8001620:	6863      	ldr	r3, [r4, #4]
 8001622:	bf08      	it	eq
 8001624:	f8c8 1000 	streq.w	r1, [r8]
 8001628:	5162      	str	r2, [r4, r5]
 800162a:	604b      	str	r3, [r1, #4]
 800162c:	4630      	mov	r0, r6
 800162e:	f000 f82f 	bl	8001690 <__malloc_unlock>
 8001632:	f104 000b 	add.w	r0, r4, #11
 8001636:	1d23      	adds	r3, r4, #4
 8001638:	f020 0007 	bic.w	r0, r0, #7
 800163c:	1ac2      	subs	r2, r0, r3
 800163e:	bf1c      	itt	ne
 8001640:	1a1b      	subne	r3, r3, r0
 8001642:	50a3      	strne	r3, [r4, r2]
 8001644:	e7af      	b.n	80015a6 <_malloc_r+0x22>
 8001646:	6862      	ldr	r2, [r4, #4]
 8001648:	42a3      	cmp	r3, r4
 800164a:	bf0c      	ite	eq
 800164c:	f8c8 2000 	streq.w	r2, [r8]
 8001650:	605a      	strne	r2, [r3, #4]
 8001652:	e7eb      	b.n	800162c <_malloc_r+0xa8>
 8001654:	4623      	mov	r3, r4
 8001656:	6864      	ldr	r4, [r4, #4]
 8001658:	e7ae      	b.n	80015b8 <_malloc_r+0x34>
 800165a:	463c      	mov	r4, r7
 800165c:	687f      	ldr	r7, [r7, #4]
 800165e:	e7b6      	b.n	80015ce <_malloc_r+0x4a>
 8001660:	461a      	mov	r2, r3
 8001662:	685b      	ldr	r3, [r3, #4]
 8001664:	42a3      	cmp	r3, r4
 8001666:	d1fb      	bne.n	8001660 <_malloc_r+0xdc>
 8001668:	2300      	movs	r3, #0
 800166a:	6053      	str	r3, [r2, #4]
 800166c:	e7de      	b.n	800162c <_malloc_r+0xa8>
 800166e:	230c      	movs	r3, #12
 8001670:	6033      	str	r3, [r6, #0]
 8001672:	4630      	mov	r0, r6
 8001674:	f000 f80c 	bl	8001690 <__malloc_unlock>
 8001678:	e794      	b.n	80015a4 <_malloc_r+0x20>
 800167a:	6005      	str	r5, [r0, #0]
 800167c:	e7d6      	b.n	800162c <_malloc_r+0xa8>
 800167e:	bf00      	nop
 8001680:	20000230 	.word	0x20000230

08001684 <__malloc_lock>:
 8001684:	4801      	ldr	r0, [pc, #4]	@ (800168c <__malloc_lock+0x8>)
 8001686:	f000 baa4 	b.w	8001bd2 <__retarget_lock_acquire_recursive>
 800168a:	bf00      	nop
 800168c:	20000374 	.word	0x20000374

08001690 <__malloc_unlock>:
 8001690:	4801      	ldr	r0, [pc, #4]	@ (8001698 <__malloc_unlock+0x8>)
 8001692:	f000 ba9f 	b.w	8001bd4 <__retarget_lock_release_recursive>
 8001696:	bf00      	nop
 8001698:	20000374 	.word	0x20000374

0800169c <rand>:
 800169c:	4b16      	ldr	r3, [pc, #88]	@ (80016f8 <rand+0x5c>)
 800169e:	b510      	push	{r4, lr}
 80016a0:	681c      	ldr	r4, [r3, #0]
 80016a2:	6b23      	ldr	r3, [r4, #48]	@ 0x30
 80016a4:	b9b3      	cbnz	r3, 80016d4 <rand+0x38>
 80016a6:	2018      	movs	r0, #24
 80016a8:	f000 fafe 	bl	8001ca8 <malloc>
 80016ac:	4602      	mov	r2, r0
 80016ae:	6320      	str	r0, [r4, #48]	@ 0x30
 80016b0:	b920      	cbnz	r0, 80016bc <rand+0x20>
 80016b2:	4b12      	ldr	r3, [pc, #72]	@ (80016fc <rand+0x60>)
 80016b4:	4812      	ldr	r0, [pc, #72]	@ (8001700 <rand+0x64>)
 80016b6:	2152      	movs	r1, #82	@ 0x52
 80016b8:	f000 fa8e 	bl	8001bd8 <__assert_func>
 80016bc:	4911      	ldr	r1, [pc, #68]	@ (8001704 <rand+0x68>)
 80016be:	4b12      	ldr	r3, [pc, #72]	@ (8001708 <rand+0x6c>)
 80016c0:	e9c0 1300 	strd	r1, r3, [r0]
 80016c4:	4b11      	ldr	r3, [pc, #68]	@ (800170c <rand+0x70>)
 80016c6:	6083      	str	r3, [r0, #8]
 80016c8:	230b      	movs	r3, #11
 80016ca:	8183      	strh	r3, [r0, #12]
 80016cc:	2100      	movs	r1, #0
 80016ce:	2001      	movs	r0, #1
 80016d0:	e9c2 0104 	strd	r0, r1, [r2, #16]
 80016d4:	6b21      	ldr	r1, [r4, #48]	@ 0x30
 80016d6:	480e      	ldr	r0, [pc, #56]	@ (8001710 <rand+0x74>)
 80016d8:	690b      	ldr	r3, [r1, #16]
 80016da:	694c      	ldr	r4, [r1, #20]
 80016dc:	4a0d      	ldr	r2, [pc, #52]	@ (8001714 <rand+0x78>)
 80016de:	4358      	muls	r0, r3
 80016e0:	fb02 0004 	mla	r0, r2, r4, r0
 80016e4:	fba3 3202 	umull	r3, r2, r3, r2
 80016e8:	3301      	adds	r3, #1
 80016ea:	eb40 0002 	adc.w	r0, r0, r2
 80016ee:	e9c1 3004 	strd	r3, r0, [r1, #16]
 80016f2:	f020 4000 	bic.w	r0, r0, #2147483648	@ 0x80000000
 80016f6:	bd10      	pop	{r4, pc}
 80016f8:	20000018 	.word	0x20000018
 80016fc:	080025bf 	.word	0x080025bf
 8001700:	080025d6 	.word	0x080025d6
 8001704:	abcd330e 	.word	0xabcd330e
 8001708:	e66d1234 	.word	0xe66d1234
 800170c:	0005deec 	.word	0x0005deec
 8001710:	5851f42d 	.word	0x5851f42d
 8001714:	4c957f2d 	.word	0x4c957f2d

08001718 <std>:
 8001718:	2300      	movs	r3, #0
 800171a:	b510      	push	{r4, lr}
 800171c:	4604      	mov	r4, r0
 800171e:	e9c0 3300 	strd	r3, r3, [r0]
 8001722:	e9c0 3304 	strd	r3, r3, [r0, #16]
 8001726:	6083      	str	r3, [r0, #8]
 8001728:	8181      	strh	r1, [r0, #12]
 800172a:	6643      	str	r3, [r0, #100]	@ 0x64
 800172c:	81c2      	strh	r2, [r0, #14]
 800172e:	6183      	str	r3, [r0, #24]
 8001730:	4619      	mov	r1, r3
 8001732:	2208      	movs	r2, #8
 8001734:	305c      	adds	r0, #92	@ 0x5c
 8001736:	f000 f9e7 	bl	8001b08 <memset>
 800173a:	4b0d      	ldr	r3, [pc, #52]	@ (8001770 <std+0x58>)
 800173c:	6263      	str	r3, [r4, #36]	@ 0x24
 800173e:	4b0d      	ldr	r3, [pc, #52]	@ (8001774 <std+0x5c>)
 8001740:	62a3      	str	r3, [r4, #40]	@ 0x28
 8001742:	4b0d      	ldr	r3, [pc, #52]	@ (8001778 <std+0x60>)
 8001744:	62e3      	str	r3, [r4, #44]	@ 0x2c
 8001746:	4b0d      	ldr	r3, [pc, #52]	@ (800177c <std+0x64>)
 8001748:	6323      	str	r3, [r4, #48]	@ 0x30
 800174a:	4b0d      	ldr	r3, [pc, #52]	@ (8001780 <std+0x68>)
 800174c:	6224      	str	r4, [r4, #32]
 800174e:	429c      	cmp	r4, r3
 8001750:	d006      	beq.n	8001760 <std+0x48>
 8001752:	f103 0268 	add.w	r2, r3, #104	@ 0x68
 8001756:	4294      	cmp	r4, r2
 8001758:	d002      	beq.n	8001760 <std+0x48>
 800175a:	33d0      	adds	r3, #208	@ 0xd0
 800175c:	429c      	cmp	r4, r3
 800175e:	d105      	bne.n	800176c <std+0x54>
 8001760:	f104 0058 	add.w	r0, r4, #88	@ 0x58
 8001764:	e8bd 4010 	ldmia.w	sp!, {r4, lr}
 8001768:	f000 ba32 	b.w	8001bd0 <__retarget_lock_init_recursive>
 800176c:	bd10      	pop	{r4, pc}
 800176e:	bf00      	nop
 8001770:	08001959 	.word	0x08001959
 8001774:	0800197b 	.word	0x0800197b
 8001778:	080019b3 	.word	0x080019b3
 800177c:	080019d7 	.word	0x080019d7
 8001780:	20000234 	.word	0x20000234

08001784 <stdio_exit_handler>:
 8001784:	4a02      	ldr	r2, [pc, #8]	@ (8001790 <stdio_exit_handler+0xc>)
 8001786:	4903      	ldr	r1, [pc, #12]	@ (8001794 <stdio_exit_handler+0x10>)
 8001788:	4803      	ldr	r0, [pc, #12]	@ (8001798 <stdio_exit_handler+0x14>)
 800178a:	f000 b869 	b.w	8001860 <_fwalk_sglue>
 800178e:	bf00      	nop
 8001790:	2000000c 	.word	0x2000000c
 8001794:	08001dc1 	.word	0x08001dc1
 8001798:	2000001c 	.word	0x2000001c

0800179c <cleanup_stdio>:
 800179c:	6841      	ldr	r1, [r0, #4]
 800179e:	4b0c      	ldr	r3, [pc, #48]	@ (80017d0 <cleanup_stdio+0x34>)
 80017a0:	4299      	cmp	r1, r3
 80017a2:	b510      	push	{r4, lr}
 80017a4:	4604      	mov	r4, r0
 80017a6:	d001      	beq.n	80017ac <cleanup_stdio+0x10>
 80017a8:	f000 fb0a 	bl	8001dc0 <_fflush_r>
 80017ac:	68a1      	ldr	r1, [r4, #8]
 80017ae:	4b09      	ldr	r3, [pc, #36]	@ (80017d4 <cleanup_stdio+0x38>)
 80017b0:	4299      	cmp	r1, r3
 80017b2:	d002      	beq.n	80017ba <cleanup_stdio+0x1e>
 80017b4:	4620      	mov	r0, r4
 80017b6:	f000 fb03 	bl	8001dc0 <_fflush_r>
 80017ba:	68e1      	ldr	r1, [r4, #12]
 80017bc:	4b06      	ldr	r3, [pc, #24]	@ (80017d8 <cleanup_stdio+0x3c>)
 80017be:	4299      	cmp	r1, r3
 80017c0:	d004      	beq.n	80017cc <cleanup_stdio+0x30>
 80017c2:	4620      	mov	r0, r4
 80017c4:	e8bd 4010 	ldmia.w	sp!, {r4, lr}
 80017c8:	f000 bafa 	b.w	8001dc0 <_fflush_r>
 80017cc:	bd10      	pop	{r4, pc}
 80017ce:	bf00      	nop
 80017d0:	20000234 	.word	0x20000234
 80017d4:	2000029c 	.word	0x2000029c
 80017d8:	20000304 	.word	0x20000304

080017dc <global_stdio_init.part.0>:
 80017dc:	b510      	push	{r4, lr}
 80017de:	4b0b      	ldr	r3, [pc, #44]	@ (800180c <global_stdio_init.part.0+0x30>)
 80017e0:	4c0b      	ldr	r4, [pc, #44]	@ (8001810 <global_stdio_init.part.0+0x34>)
 80017e2:	4a0c      	ldr	r2, [pc, #48]	@ (8001814 <global_stdio_init.part.0+0x38>)
 80017e4:	601a      	str	r2, [r3, #0]
 80017e6:	4620      	mov	r0, r4
 80017e8:	2200      	movs	r2, #0
 80017ea:	2104      	movs	r1, #4
 80017ec:	f7ff ff94 	bl	8001718 <std>
 80017f0:	f104 0068 	add.w	r0, r4, #104	@ 0x68
 80017f4:	2201      	movs	r2, #1
 80017f6:	2109      	movs	r1, #9
 80017f8:	f7ff ff8e 	bl	8001718 <std>
 80017fc:	f104 00d0 	add.w	r0, r4, #208	@ 0xd0
 8001800:	2202      	movs	r2, #2
 8001802:	e8bd 4010 	ldmia.w	sp!, {r4, lr}
 8001806:	2112      	movs	r1, #18
 8001808:	f7ff bf86 	b.w	8001718 <std>
 800180c:	2000036c 	.word	0x2000036c
 8001810:	20000234 	.word	0x20000234
 8001814:	08001785 	.word	0x08001785

08001818 <__sfp_lock_acquire>:
 8001818:	4801      	ldr	r0, [pc, #4]	@ (8001820 <__sfp_lock_acquire+0x8>)
 800181a:	f000 b9da 	b.w	8001bd2 <__retarget_lock_acquire_recursive>
 800181e:	bf00      	nop
 8001820:	20000375 	.word	0x20000375

08001824 <__sfp_lock_release>:
 8001824:	4801      	ldr	r0, [pc, #4]	@ (800182c <__sfp_lock_release+0x8>)
 8001826:	f000 b9d5 	b.w	8001bd4 <__retarget_lock_release_recursive>
 800182a:	bf00      	nop
 800182c:	20000375 	.word	0x20000375

08001830 <__sinit>:
 8001830:	b510      	push	{r4, lr}
 8001832:	4604      	mov	r4, r0
 8001834:	f7ff fff0 	bl	8001818 <__sfp_lock_acquire>
 8001838:	6a23      	ldr	r3, [r4, #32]
 800183a:	b11b      	cbz	r3, 8001844 <__sinit+0x14>
 800183c:	e8bd 4010 	ldmia.w	sp!, {r4, lr}
 8001840:	f7ff bff0 	b.w	8001824 <__sfp_lock_release>
 8001844:	4b04      	ldr	r3, [pc, #16]	@ (8001858 <__sinit+0x28>)
 8001846:	6223      	str	r3, [r4, #32]
 8001848:	4b04      	ldr	r3, [pc, #16]	@ (800185c <__sinit+0x2c>)
 800184a:	681b      	ldr	r3, [r3, #0]
 800184c:	2b00      	cmp	r3, #0
 800184e:	d1f5      	bne.n	800183c <__sinit+0xc>
 8001850:	f7ff ffc4 	bl	80017dc <global_stdio_init.part.0>
 8001854:	e7f2      	b.n	800183c <__sinit+0xc>
 8001856:	bf00      	nop
 8001858:	0800179d 	.word	0x0800179d
 800185c:	2000036c 	.word	0x2000036c

08001860 <_fwalk_sglue>:
 8001860:	e92d 43f8 	stmdb	sp!, {r3, r4, r5, r6, r7, r8, r9, lr}
 8001864:	4607      	mov	r7, r0
 8001866:	4688      	mov	r8, r1
 8001868:	4614      	mov	r4, r2
 800186a:	2600      	movs	r6, #0
 800186c:	e9d4 9501 	ldrd	r9, r5, [r4, #4]
 8001870:	f1b9 0901 	subs.w	r9, r9, #1
 8001874:	d505      	bpl.n	8001882 <_fwalk_sglue+0x22>
 8001876:	6824      	ldr	r4, [r4, #0]
 8001878:	2c00      	cmp	r4, #0
 800187a:	d1f7      	bne.n	800186c <_fwalk_sglue+0xc>
 800187c:	4630      	mov	r0, r6
 800187e:	e8bd 83f8 	ldmia.w	sp!, {r3, r4, r5, r6, r7, r8, r9, pc}
 8001882:	89ab      	ldrh	r3, [r5, #12]
 8001884:	2b01      	cmp	r3, #1
 8001886:	d907      	bls.n	8001898 <_fwalk_sglue+0x38>
 8001888:	f9b5 300e 	ldrsh.w	r3, [r5, #14]
 800188c:	3301      	adds	r3, #1
 800188e:	d003      	beq.n	8001898 <_fwalk_sglue+0x38>
 8001890:	4629      	mov	r1, r5
 8001892:	4638      	mov	r0, r7
 8001894:	47c0      	blx	r8
 8001896:	4306      	orrs	r6, r0
 8001898:	3568      	adds	r5, #104	@ 0x68
 800189a:	e7e9      	b.n	8001870 <_fwalk_sglue+0x10>

0800189c <_puts_r>:
 800189c:	6a03      	ldr	r3, [r0, #32]
 800189e:	b570      	push	{r4, r5, r6, lr}
 80018a0:	6884      	ldr	r4, [r0, #8]
 80018a2:	4605      	mov	r5, r0
 80018a4:	460e      	mov	r6, r1
 80018a6:	b90b      	cbnz	r3, 80018ac <_puts_r+0x10>
 80018a8:	f7ff ffc2 	bl	8001830 <__sinit>
 80018ac:	6e63      	ldr	r3, [r4, #100]	@ 0x64
 80018ae:	07db      	lsls	r3, r3, #31
 80018b0:	d405      	bmi.n	80018be <_puts_r+0x22>
 80018b2:	89a3      	ldrh	r3, [r4, #12]
 80018b4:	0598      	lsls	r0, r3, #22
 80018b6:	d402      	bmi.n	80018be <_puts_r+0x22>
 80018b8:	6da0      	ldr	r0, [r4, #88]	@ 0x58
 80018ba:	f000 f98a 	bl	8001bd2 <__retarget_lock_acquire_recursive>
 80018be:	89a3      	ldrh	r3, [r4, #12]
 80018c0:	0719      	lsls	r1, r3, #28
 80018c2:	d502      	bpl.n	80018ca <_puts_r+0x2e>
 80018c4:	6923      	ldr	r3, [r4, #16]
 80018c6:	2b00      	cmp	r3, #0
 80018c8:	d135      	bne.n	8001936 <_puts_r+0x9a>
 80018ca:	4621      	mov	r1, r4
 80018cc:	4628      	mov	r0, r5
 80018ce:	f000 f8c5 	bl	8001a5c <__swsetup_r>
 80018d2:	b380      	cbz	r0, 8001936 <_puts_r+0x9a>
 80018d4:	f04f 35ff 	mov.w	r5, #4294967295	@ 0xffffffff
 80018d8:	6e63      	ldr	r3, [r4, #100]	@ 0x64
 80018da:	07da      	lsls	r2, r3, #31
 80018dc:	d405      	bmi.n	80018ea <_puts_r+0x4e>
 80018de:	89a3      	ldrh	r3, [r4, #12]
 80018e0:	059b      	lsls	r3, r3, #22
 80018e2:	d402      	bmi.n	80018ea <_puts_r+0x4e>
 80018e4:	6da0      	ldr	r0, [r4, #88]	@ 0x58
 80018e6:	f000 f975 	bl	8001bd4 <__retarget_lock_release_recursive>
 80018ea:	4628      	mov	r0, r5
 80018ec:	bd70      	pop	{r4, r5, r6, pc}
 80018ee:	2b00      	cmp	r3, #0
 80018f0:	da04      	bge.n	80018fc <_puts_r+0x60>
 80018f2:	69a2      	ldr	r2, [r4, #24]
 80018f4:	429a      	cmp	r2, r3
 80018f6:	dc17      	bgt.n	8001928 <_puts_r+0x8c>
 80018f8:	290a      	cmp	r1, #10
 80018fa:	d015      	beq.n	8001928 <_puts_r+0x8c>
 80018fc:	6823      	ldr	r3, [r4, #0]
 80018fe:	1c5a      	adds	r2, r3, #1
 8001900:	6022      	str	r2, [r4, #0]
 8001902:	7019      	strb	r1, [r3, #0]
 8001904:	68a3      	ldr	r3, [r4, #8]
 8001906:	f816 1f01 	ldrb.w	r1, [r6, #1]!
 800190a:	3b01      	subs	r3, #1
 800190c:	60a3      	str	r3, [r4, #8]
 800190e:	2900      	cmp	r1, #0
 8001910:	d1ed      	bne.n	80018ee <_puts_r+0x52>
 8001912:	2b00      	cmp	r3, #0
 8001914:	da11      	bge.n	800193a <_puts_r+0x9e>
 8001916:	4622      	mov	r2, r4
 8001918:	210a      	movs	r1, #10
 800191a:	4628      	mov	r0, r5
 800191c:	f000 f85f 	bl	80019de <__swbuf_r>
 8001920:	3001      	adds	r0, #1
 8001922:	d0d7      	beq.n	80018d4 <_puts_r+0x38>
 8001924:	250a      	movs	r5, #10
 8001926:	e7d7      	b.n	80018d8 <_puts_r+0x3c>
 8001928:	4622      	mov	r2, r4
 800192a:	4628      	mov	r0, r5
 800192c:	f000 f857 	bl	80019de <__swbuf_r>
 8001930:	3001      	adds	r0, #1
 8001932:	d1e7      	bne.n	8001904 <_puts_r+0x68>
 8001934:	e7ce      	b.n	80018d4 <_puts_r+0x38>
 8001936:	3e01      	subs	r6, #1
 8001938:	e7e4      	b.n	8001904 <_puts_r+0x68>
 800193a:	6823      	ldr	r3, [r4, #0]
 800193c:	1c5a      	adds	r2, r3, #1
 800193e:	6022      	str	r2, [r4, #0]
 8001940:	220a      	movs	r2, #10
 8001942:	701a      	strb	r2, [r3, #0]
 8001944:	e7ee      	b.n	8001924 <_puts_r+0x88>
	...

08001948 <puts>:
 8001948:	4b02      	ldr	r3, [pc, #8]	@ (8001954 <puts+0xc>)
 800194a:	4601      	mov	r1, r0
 800194c:	6818      	ldr	r0, [r3, #0]
 800194e:	f7ff bfa5 	b.w	800189c <_puts_r>
 8001952:	bf00      	nop
 8001954:	20000018 	.word	0x20000018

08001958 <__sread>:
 8001958:	b510      	push	{r4, lr}
 800195a:	460c      	mov	r4, r1
 800195c:	f9b1 100e 	ldrsh.w	r1, [r1, #14]
 8001960:	f000 f8fc 	bl	8001b5c <_read_r>
 8001964:	2800      	cmp	r0, #0
 8001966:	bfab      	itete	ge
 8001968:	6d63      	ldrge	r3, [r4, #84]	@ 0x54
 800196a:	89a3      	ldrhlt	r3, [r4, #12]
 800196c:	181b      	addge	r3, r3, r0
 800196e:	f423 5380 	biclt.w	r3, r3, #4096	@ 0x1000
 8001972:	bfac      	ite	ge
 8001974:	6563      	strge	r3, [r4, #84]	@ 0x54
 8001976:	81a3      	strhlt	r3, [r4, #12]
 8001978:	bd10      	pop	{r4, pc}

0800197a <__swrite>:
 800197a:	e92d 41f0 	stmdb	sp!, {r4, r5, r6, r7, r8, lr}
 800197e:	461f      	mov	r7, r3
 8001980:	898b      	ldrh	r3, [r1, #12]
 8001982:	05db      	lsls	r3, r3, #23
 8001984:	4605      	mov	r5, r0
 8001986:	460c      	mov	r4, r1
 8001988:	4616      	mov	r6, r2
 800198a:	d505      	bpl.n	8001998 <__swrite+0x1e>
 800198c:	f9b1 100e 	ldrsh.w	r1, [r1, #14]
 8001990:	2302      	movs	r3, #2
 8001992:	2200      	movs	r2, #0
 8001994:	f000 f8d0 	bl	8001b38 <_lseek_r>
 8001998:	89a3      	ldrh	r3, [r4, #12]
 800199a:	f9b4 100e 	ldrsh.w	r1, [r4, #14]
 800199e:	f423 5380 	bic.w	r3, r3, #4096	@ 0x1000
 80019a2:	81a3      	strh	r3, [r4, #12]
 80019a4:	4632      	mov	r2, r6
 80019a6:	463b      	mov	r3, r7
 80019a8:	4628      	mov	r0, r5
 80019aa:	e8bd 41f0 	ldmia.w	sp!, {r4, r5, r6, r7, r8, lr}
 80019ae:	f000 b8f7 	b.w	8001ba0 <_write_r>

080019b2 <__sseek>:
 80019b2:	b510      	push	{r4, lr}
 80019b4:	460c      	mov	r4, r1
 80019b6:	f9b1 100e 	ldrsh.w	r1, [r1, #14]
 80019ba:	f000 f8bd 	bl	8001b38 <_lseek_r>
 80019be:	1c43      	adds	r3, r0, #1
 80019c0:	89a3      	ldrh	r3, [r4, #12]
 80019c2:	bf15      	itete	ne
 80019c4:	6560      	strne	r0, [r4, #84]	@ 0x54
 80019c6:	f423 5380 	biceq.w	r3, r3, #4096	@ 0x1000
 80019ca:	f443 5380 	orrne.w	r3, r3, #4096	@ 0x1000
 80019ce:	81a3      	strheq	r3, [r4, #12]
 80019d0:	bf18      	it	ne
 80019d2:	81a3      	strhne	r3, [r4, #12]
 80019d4:	bd10      	pop	{r4, pc}

080019d6 <__sclose>:
 80019d6:	f9b1 100e 	ldrsh.w	r1, [r1, #14]
 80019da:	f000 b89d 	b.w	8001b18 <_close_r>

080019de <__swbuf_r>:
 80019de:	b5f8      	push	{r3, r4, r5, r6, r7, lr}
 80019e0:	460e      	mov	r6, r1
 80019e2:	4614      	mov	r4, r2
 80019e4:	4605      	mov	r5, r0
 80019e6:	b118      	cbz	r0, 80019f0 <__swbuf_r+0x12>
 80019e8:	6a03      	ldr	r3, [r0, #32]
 80019ea:	b90b      	cbnz	r3, 80019f0 <__swbuf_r+0x12>
 80019ec:	f7ff ff20 	bl	8001830 <__sinit>
 80019f0:	69a3      	ldr	r3, [r4, #24]
 80019f2:	60a3      	str	r3, [r4, #8]
 80019f4:	89a3      	ldrh	r3, [r4, #12]
 80019f6:	071a      	lsls	r2, r3, #28
 80019f8:	d501      	bpl.n	80019fe <__swbuf_r+0x20>
 80019fa:	6923      	ldr	r3, [r4, #16]
 80019fc:	b943      	cbnz	r3, 8001a10 <__swbuf_r+0x32>
 80019fe:	4621      	mov	r1, r4
 8001a00:	4628      	mov	r0, r5
 8001a02:	f000 f82b 	bl	8001a5c <__swsetup_r>
 8001a06:	b118      	cbz	r0, 8001a10 <__swbuf_r+0x32>
 8001a08:	f04f 37ff 	mov.w	r7, #4294967295	@ 0xffffffff
 8001a0c:	4638      	mov	r0, r7
 8001a0e:	bdf8      	pop	{r3, r4, r5, r6, r7, pc}
 8001a10:	6823      	ldr	r3, [r4, #0]
 8001a12:	6922      	ldr	r2, [r4, #16]
 8001a14:	1a98      	subs	r0, r3, r2
 8001a16:	6963      	ldr	r3, [r4, #20]
 8001a18:	b2f6      	uxtb	r6, r6
 8001a1a:	4283      	cmp	r3, r0
 8001a1c:	4637      	mov	r7, r6
 8001a1e:	dc05      	bgt.n	8001a2c <__swbuf_r+0x4e>
 8001a20:	4621      	mov	r1, r4
 8001a22:	4628      	mov	r0, r5
 8001a24:	f000 f9cc 	bl	8001dc0 <_fflush_r>
 8001a28:	2800      	cmp	r0, #0
 8001a2a:	d1ed      	bne.n	8001a08 <__swbuf_r+0x2a>
 8001a2c:	68a3      	ldr	r3, [r4, #8]
 8001a2e:	3b01      	subs	r3, #1
 8001a30:	60a3      	str	r3, [r4, #8]
 8001a32:	6823      	ldr	r3, [r4, #0]
 8001a34:	1c5a      	adds	r2, r3, #1
 8001a36:	6022      	str	r2, [r4, #0]
 8001a38:	701e      	strb	r6, [r3, #0]
 8001a3a:	6962      	ldr	r2, [r4, #20]
 8001a3c:	1c43      	adds	r3, r0, #1
 8001a3e:	429a      	cmp	r2, r3
 8001a40:	d004      	beq.n	8001a4c <__swbuf_r+0x6e>
 8001a42:	89a3      	ldrh	r3, [r4, #12]
 8001a44:	07db      	lsls	r3, r3, #31
 8001a46:	d5e1      	bpl.n	8001a0c <__swbuf_r+0x2e>
 8001a48:	2e0a      	cmp	r6, #10
 8001a4a:	d1df      	bne.n	8001a0c <__swbuf_r+0x2e>
 8001a4c:	4621      	mov	r1, r4
 8001a4e:	4628      	mov	r0, r5
 8001a50:	f000 f9b6 	bl	8001dc0 <_fflush_r>
 8001a54:	2800      	cmp	r0, #0
 8001a56:	d0d9      	beq.n	8001a0c <__swbuf_r+0x2e>
 8001a58:	e7d6      	b.n	8001a08 <__swbuf_r+0x2a>
	...

08001a5c <__swsetup_r>:
 8001a5c:	b538      	push	{r3, r4, r5, lr}
 8001a5e:	4b29      	ldr	r3, [pc, #164]	@ (8001b04 <__swsetup_r+0xa8>)
 8001a60:	4605      	mov	r5, r0
 8001a62:	6818      	ldr	r0, [r3, #0]
 8001a64:	460c      	mov	r4, r1
 8001a66:	b118      	cbz	r0, 8001a70 <__swsetup_r+0x14>
 8001a68:	6a03      	ldr	r3, [r0, #32]
 8001a6a:	b90b      	cbnz	r3, 8001a70 <__swsetup_r+0x14>
 8001a6c:	f7ff fee0 	bl	8001830 <__sinit>
 8001a70:	f9b4 300c 	ldrsh.w	r3, [r4, #12]
 8001a74:	0719      	lsls	r1, r3, #28
 8001a76:	d422      	bmi.n	8001abe <__swsetup_r+0x62>
 8001a78:	06da      	lsls	r2, r3, #27
 8001a7a:	d407      	bmi.n	8001a8c <__swsetup_r+0x30>
 8001a7c:	2209      	movs	r2, #9
 8001a7e:	602a      	str	r2, [r5, #0]
 8001a80:	f043 0340 	orr.w	r3, r3, #64	@ 0x40
 8001a84:	81a3      	strh	r3, [r4, #12]
 8001a86:	f04f 30ff 	mov.w	r0, #4294967295	@ 0xffffffff
 8001a8a:	e033      	b.n	8001af4 <__swsetup_r+0x98>
 8001a8c:	0758      	lsls	r0, r3, #29
 8001a8e:	d512      	bpl.n	8001ab6 <__swsetup_r+0x5a>
 8001a90:	6b61      	ldr	r1, [r4, #52]	@ 0x34
 8001a92:	b141      	cbz	r1, 8001aa6 <__swsetup_r+0x4a>
 8001a94:	f104 0344 	add.w	r3, r4, #68	@ 0x44
 8001a98:	4299      	cmp	r1, r3
 8001a9a:	d002      	beq.n	8001aa2 <__swsetup_r+0x46>
 8001a9c:	4628      	mov	r0, r5
 8001a9e:	f000 f8b9 	bl	8001c14 <_free_r>
 8001aa2:	2300      	movs	r3, #0
 8001aa4:	6363      	str	r3, [r4, #52]	@ 0x34
 8001aa6:	89a3      	ldrh	r3, [r4, #12]
 8001aa8:	f023 0324 	bic.w	r3, r3, #36	@ 0x24
 8001aac:	81a3      	strh	r3, [r4, #12]
 8001aae:	2300      	movs	r3, #0
 8001ab0:	6063      	str	r3, [r4, #4]
 8001ab2:	6923      	ldr	r3, [r4, #16]
 8001ab4:	6023      	str	r3, [r4, #0]
 8001ab6:	89a3      	ldrh	r3, [r4, #12]
 8001ab8:	f043 0308 	orr.w	r3, r3, #8
 8001abc:	81a3      	strh	r3, [r4, #12]
 8001abe:	6923      	ldr	r3, [r4, #16]
 8001ac0:	b94b      	cbnz	r3, 8001ad6 <__swsetup_r+0x7a>
 8001ac2:	89a3      	ldrh	r3, [r4, #12]
 8001ac4:	f403 7320 	and.w	r3, r3, #640	@ 0x280
 8001ac8:	f5b3 7f00 	cmp.w	r3, #512	@ 0x200
 8001acc:	d003      	beq.n	8001ad6 <__swsetup_r+0x7a>
 8001ace:	4621      	mov	r1, r4
 8001ad0:	4628      	mov	r0, r5
 8001ad2:	f000 f9d5 	bl	8001e80 <__smakebuf_r>
 8001ad6:	f9b4 300c 	ldrsh.w	r3, [r4, #12]
 8001ada:	f013 0201 	ands.w	r2, r3, #1
 8001ade:	d00a      	beq.n	8001af6 <__swsetup_r+0x9a>
 8001ae0:	2200      	movs	r2, #0
 8001ae2:	60a2      	str	r2, [r4, #8]
 8001ae4:	6962      	ldr	r2, [r4, #20]
 8001ae6:	4252      	negs	r2, r2
 8001ae8:	61a2      	str	r2, [r4, #24]
 8001aea:	6922      	ldr	r2, [r4, #16]
 8001aec:	b942      	cbnz	r2, 8001b00 <__swsetup_r+0xa4>
 8001aee:	f013 0080 	ands.w	r0, r3, #128	@ 0x80
 8001af2:	d1c5      	bne.n	8001a80 <__swsetup_r+0x24>
 8001af4:	bd38      	pop	{r3, r4, r5, pc}
 8001af6:	0799      	lsls	r1, r3, #30
 8001af8:	bf58      	it	pl
 8001afa:	6962      	ldrpl	r2, [r4, #20]
 8001afc:	60a2      	str	r2, [r4, #8]
 8001afe:	e7f4      	b.n	8001aea <__swsetup_r+0x8e>
 8001b00:	2000      	movs	r0, #0
 8001b02:	e7f7      	b.n	8001af4 <__swsetup_r+0x98>
 8001b04:	20000018 	.word	0x20000018

08001b08 <memset>:
 8001b08:	4402      	add	r2, r0
 8001b0a:	4603      	mov	r3, r0
 8001b0c:	4293      	cmp	r3, r2
 8001b0e:	d100      	bne.n	8001b12 <memset+0xa>
 8001b10:	4770      	bx	lr
 8001b12:	f803 1b01 	strb.w	r1, [r3], #1
 8001b16:	e7f9      	b.n	8001b0c <memset+0x4>

08001b18 <_close_r>:
 8001b18:	b538      	push	{r3, r4, r5, lr}
 8001b1a:	4d06      	ldr	r5, [pc, #24]	@ (8001b34 <_close_r+0x1c>)
 8001b1c:	2300      	movs	r3, #0
 8001b1e:	4604      	mov	r4, r0
 8001b20:	4608      	mov	r0, r1
 8001b22:	602b      	str	r3, [r5, #0]
 8001b24:	f7ff f924 	bl	8000d70 <_close>
 8001b28:	1c43      	adds	r3, r0, #1
 8001b2a:	d102      	bne.n	8001b32 <_close_r+0x1a>
 8001b2c:	682b      	ldr	r3, [r5, #0]
 8001b2e:	b103      	cbz	r3, 8001b32 <_close_r+0x1a>
 8001b30:	6023      	str	r3, [r4, #0]
 8001b32:	bd38      	pop	{r3, r4, r5, pc}
 8001b34:	20000370 	.word	0x20000370

08001b38 <_lseek_r>:
 8001b38:	b538      	push	{r3, r4, r5, lr}
 8001b3a:	4d07      	ldr	r5, [pc, #28]	@ (8001b58 <_lseek_r+0x20>)
 8001b3c:	4604      	mov	r4, r0
 8001b3e:	4608      	mov	r0, r1
 8001b40:	4611      	mov	r1, r2
 8001b42:	2200      	movs	r2, #0
 8001b44:	602a      	str	r2, [r5, #0]
 8001b46:	461a      	mov	r2, r3
 8001b48:	f7ff f91c 	bl	8000d84 <_lseek>
 8001b4c:	1c43      	adds	r3, r0, #1
 8001b4e:	d102      	bne.n	8001b56 <_lseek_r+0x1e>
 8001b50:	682b      	ldr	r3, [r5, #0]
 8001b52:	b103      	cbz	r3, 8001b56 <_lseek_r+0x1e>
 8001b54:	6023      	str	r3, [r4, #0]
 8001b56:	bd38      	pop	{r3, r4, r5, pc}
 8001b58:	20000370 	.word	0x20000370

08001b5c <_read_r>:
 8001b5c:	b538      	push	{r3, r4, r5, lr}
 8001b5e:	4d07      	ldr	r5, [pc, #28]	@ (8001b7c <_read_r+0x20>)
 8001b60:	4604      	mov	r4, r0
 8001b62:	4608      	mov	r0, r1
 8001b64:	4611      	mov	r1, r2
 8001b66:	2200      	movs	r2, #0
 8001b68:	602a      	str	r2, [r5, #0]
 8001b6a:	461a      	mov	r2, r3
 8001b6c:	f7ff f8e4 	bl	8000d38 <_read>
 8001b70:	1c43      	adds	r3, r0, #1
 8001b72:	d102      	bne.n	8001b7a <_read_r+0x1e>
 8001b74:	682b      	ldr	r3, [r5, #0]
 8001b76:	b103      	cbz	r3, 8001b7a <_read_r+0x1e>
 8001b78:	6023      	str	r3, [r4, #0]
 8001b7a:	bd38      	pop	{r3, r4, r5, pc}
 8001b7c:	20000370 	.word	0x20000370

08001b80 <_sbrk_r>:
 8001b80:	b538      	push	{r3, r4, r5, lr}
 8001b82:	4d06      	ldr	r5, [pc, #24]	@ (8001b9c <_sbrk_r+0x1c>)
 8001b84:	2300      	movs	r3, #0
 8001b86:	4604      	mov	r4, r0
 8001b88:	4608      	mov	r0, r1
 8001b8a:	602b      	str	r3, [r5, #0]
 8001b8c:	f7ff f8fc 	bl	8000d88 <_sbrk>
 8001b90:	1c43      	adds	r3, r0, #1
 8001b92:	d102      	bne.n	8001b9a <_sbrk_r+0x1a>
 8001b94:	682b      	ldr	r3, [r5, #0]
 8001b96:	b103      	cbz	r3, 8001b9a <_sbrk_r+0x1a>
 8001b98:	6023      	str	r3, [r4, #0]
 8001b9a:	bd38      	pop	{r3, r4, r5, pc}
 8001b9c:	20000370 	.word	0x20000370

08001ba0 <_write_r>:
 8001ba0:	b538      	push	{r3, r4, r5, lr}
 8001ba2:	4d07      	ldr	r5, [pc, #28]	@ (8001bc0 <_write_r+0x20>)
 8001ba4:	4604      	mov	r4, r0
 8001ba6:	4608      	mov	r0, r1
 8001ba8:	4611      	mov	r1, r2
 8001baa:	2200      	movs	r2, #0
 8001bac:	602a      	str	r2, [r5, #0]
 8001bae:	461a      	mov	r2, r3
 8001bb0:	f7ff f8d0 	bl	8000d54 <_write>
 8001bb4:	1c43      	adds	r3, r0, #1
 8001bb6:	d102      	bne.n	8001bbe <_write_r+0x1e>
 8001bb8:	682b      	ldr	r3, [r5, #0]
 8001bba:	b103      	cbz	r3, 8001bbe <_write_r+0x1e>
 8001bbc:	6023      	str	r3, [r4, #0]
 8001bbe:	bd38      	pop	{r3, r4, r5, pc}
 8001bc0:	20000370 	.word	0x20000370

08001bc4 <__errno>:
 8001bc4:	4b01      	ldr	r3, [pc, #4]	@ (8001bcc <__errno+0x8>)
 8001bc6:	6818      	ldr	r0, [r3, #0]
 8001bc8:	4770      	bx	lr
 8001bca:	bf00      	nop
 8001bcc:	20000018 	.word	0x20000018

08001bd0 <__retarget_lock_init_recursive>:
 8001bd0:	4770      	bx	lr

08001bd2 <__retarget_lock_acquire_recursive>:
 8001bd2:	4770      	bx	lr

08001bd4 <__retarget_lock_release_recursive>:
 8001bd4:	4770      	bx	lr
	...

08001bd8 <__assert_func>:
 8001bd8:	b51f      	push	{r0, r1, r2, r3, r4, lr}
 8001bda:	4614      	mov	r4, r2
 8001bdc:	461a      	mov	r2, r3
 8001bde:	4b09      	ldr	r3, [pc, #36]	@ (8001c04 <__assert_func+0x2c>)
 8001be0:	681b      	ldr	r3, [r3, #0]
 8001be2:	4605      	mov	r5, r0
 8001be4:	68d8      	ldr	r0, [r3, #12]
 8001be6:	b954      	cbnz	r4, 8001bfe <__assert_func+0x26>
 8001be8:	4b07      	ldr	r3, [pc, #28]	@ (8001c08 <__assert_func+0x30>)
 8001bea:	461c      	mov	r4, r3
 8001bec:	e9cd 3401 	strd	r3, r4, [sp, #4]
 8001bf0:	9100      	str	r1, [sp, #0]
 8001bf2:	462b      	mov	r3, r5
 8001bf4:	4905      	ldr	r1, [pc, #20]	@ (8001c0c <__assert_func+0x34>)
 8001bf6:	f000 f90b 	bl	8001e10 <fiprintf>
 8001bfa:	f000 f99f 	bl	8001f3c <abort>
 8001bfe:	4b04      	ldr	r3, [pc, #16]	@ (8001c10 <__assert_func+0x38>)
 8001c00:	e7f4      	b.n	8001bec <__assert_func+0x14>
 8001c02:	bf00      	nop
 8001c04:	20000018 	.word	0x20000018
 8001c08:	08002669 	.word	0x08002669
 8001c0c:	0800263b 	.word	0x0800263b
 8001c10:	0800262e 	.word	0x0800262e

08001c14 <_free_r>:
 8001c14:	b538      	push	{r3, r4, r5, lr}
 8001c16:	4605      	mov	r5, r0
 8001c18:	2900      	cmp	r1, #0
 8001c1a:	d041      	beq.n	8001ca0 <_free_r+0x8c>
 8001c1c:	f851 3c04 	ldr.w	r3, [r1, #-4]
 8001c20:	1f0c      	subs	r4, r1, #4
 8001c22:	2b00      	cmp	r3, #0
 8001c24:	bfb8      	it	lt
 8001c26:	18e4      	addlt	r4, r4, r3
 8001c28:	f7ff fd2c 	bl	8001684 <__malloc_lock>
 8001c2c:	4a1d      	ldr	r2, [pc, #116]	@ (8001ca4 <_free_r+0x90>)
 8001c2e:	6813      	ldr	r3, [r2, #0]
 8001c30:	b933      	cbnz	r3, 8001c40 <_free_r+0x2c>
 8001c32:	6063      	str	r3, [r4, #4]
 8001c34:	6014      	str	r4, [r2, #0]
 8001c36:	4628      	mov	r0, r5
 8001c38:	e8bd 4038 	ldmia.w	sp!, {r3, r4, r5, lr}
 8001c3c:	f7ff bd28 	b.w	8001690 <__malloc_unlock>
 8001c40:	42a3      	cmp	r3, r4
 8001c42:	d908      	bls.n	8001c56 <_free_r+0x42>
 8001c44:	6820      	ldr	r0, [r4, #0]
 8001c46:	1821      	adds	r1, r4, r0
 8001c48:	428b      	cmp	r3, r1
 8001c4a:	bf01      	itttt	eq
 8001c4c:	6819      	ldreq	r1, [r3, #0]
 8001c4e:	685b      	ldreq	r3, [r3, #4]
 8001c50:	1809      	addeq	r1, r1, r0
 8001c52:	6021      	streq	r1, [r4, #0]
 8001c54:	e7ed      	b.n	8001c32 <_free_r+0x1e>
 8001c56:	461a      	mov	r2, r3
 8001c58:	685b      	ldr	r3, [r3, #4]
 8001c5a:	b10b      	cbz	r3, 8001c60 <_free_r+0x4c>
 8001c5c:	42a3      	cmp	r3, r4
 8001c5e:	d9fa      	bls.n	8001c56 <_free_r+0x42>
 8001c60:	6811      	ldr	r1, [r2, #0]
 8001c62:	1850      	adds	r0, r2, r1
 8001c64:	42a0      	cmp	r0, r4
 8001c66:	d10b      	bne.n	8001c80 <_free_r+0x6c>
 8001c68:	6820      	ldr	r0, [r4, #0]
 8001c6a:	4401      	add	r1, r0
 8001c6c:	1850      	adds	r0, r2, r1
 8001c6e:	4283      	cmp	r3, r0
 8001c70:	6011      	str	r1, [r2, #0]
 8001c72:	d1e0      	bne.n	8001c36 <_free_r+0x22>
 8001c74:	6818      	ldr	r0, [r3, #0]
 8001c76:	685b      	ldr	r3, [r3, #4]
 8001c78:	6053      	str	r3, [r2, #4]
 8001c7a:	4408      	add	r0, r1
 8001c7c:	6010      	str	r0, [r2, #0]
 8001c7e:	e7da      	b.n	8001c36 <_free_r+0x22>
 8001c80:	d902      	bls.n	8001c88 <_free_r+0x74>
 8001c82:	230c      	movs	r3, #12
 8001c84:	602b      	str	r3, [r5, #0]
 8001c86:	e7d6      	b.n	8001c36 <_free_r+0x22>
 8001c88:	6820      	ldr	r0, [r4, #0]
 8001c8a:	1821      	adds	r1, r4, r0
 8001c8c:	428b      	cmp	r3, r1
 8001c8e:	bf04      	itt	eq
 8001c90:	6819      	ldreq	r1, [r3, #0]
 8001c92:	685b      	ldreq	r3, [r3, #4]
 8001c94:	6063      	str	r3, [r4, #4]
 8001c96:	bf04      	itt	eq
 8001c98:	1809      	addeq	r1, r1, r0
 8001c9a:	6021      	streq	r1, [r4, #0]
 8001c9c:	6054      	str	r4, [r2, #4]
 8001c9e:	e7ca      	b.n	8001c36 <_free_r+0x22>
 8001ca0:	bd38      	pop	{r3, r4, r5, pc}
 8001ca2:	bf00      	nop
 8001ca4:	20000230 	.word	0x20000230

08001ca8 <malloc>:
 8001ca8:	4b02      	ldr	r3, [pc, #8]	@ (8001cb4 <malloc+0xc>)
 8001caa:	4601      	mov	r1, r0
 8001cac:	6818      	ldr	r0, [r3, #0]
 8001cae:	f7ff bc69 	b.w	8001584 <_malloc_r>
 8001cb2:	bf00      	nop
 8001cb4:	20000018 	.word	0x20000018

08001cb8 <__sflush_r>:
 8001cb8:	f9b1 200c 	ldrsh.w	r2, [r1, #12]
 8001cbc:	e92d 41f0 	stmdb	sp!, {r4, r5, r6, r7, r8, lr}
 8001cc0:	0716      	lsls	r6, r2, #28
 8001cc2:	4605      	mov	r5, r0
 8001cc4:	460c      	mov	r4, r1
 8001cc6:	d454      	bmi.n	8001d72 <__sflush_r+0xba>
 8001cc8:	684b      	ldr	r3, [r1, #4]
 8001cca:	2b00      	cmp	r3, #0
 8001ccc:	dc02      	bgt.n	8001cd4 <__sflush_r+0x1c>
 8001cce:	6c0b      	ldr	r3, [r1, #64]	@ 0x40
 8001cd0:	2b00      	cmp	r3, #0
 8001cd2:	dd48      	ble.n	8001d66 <__sflush_r+0xae>
 8001cd4:	6ae6      	ldr	r6, [r4, #44]	@ 0x2c
 8001cd6:	2e00      	cmp	r6, #0
 8001cd8:	d045      	beq.n	8001d66 <__sflush_r+0xae>
 8001cda:	2300      	movs	r3, #0
 8001cdc:	f412 5280 	ands.w	r2, r2, #4096	@ 0x1000
 8001ce0:	682f      	ldr	r7, [r5, #0]
 8001ce2:	6a21      	ldr	r1, [r4, #32]
 8001ce4:	602b      	str	r3, [r5, #0]
 8001ce6:	d030      	beq.n	8001d4a <__sflush_r+0x92>
 8001ce8:	6d62      	ldr	r2, [r4, #84]	@ 0x54
 8001cea:	89a3      	ldrh	r3, [r4, #12]
 8001cec:	0759      	lsls	r1, r3, #29
 8001cee:	d505      	bpl.n	8001cfc <__sflush_r+0x44>
 8001cf0:	6863      	ldr	r3, [r4, #4]
 8001cf2:	1ad2      	subs	r2, r2, r3
 8001cf4:	6b63      	ldr	r3, [r4, #52]	@ 0x34
 8001cf6:	b10b      	cbz	r3, 8001cfc <__sflush_r+0x44>
 8001cf8:	6c23      	ldr	r3, [r4, #64]	@ 0x40
 8001cfa:	1ad2      	subs	r2, r2, r3
 8001cfc:	2300      	movs	r3, #0
 8001cfe:	6ae6      	ldr	r6, [r4, #44]	@ 0x2c
 8001d00:	6a21      	ldr	r1, [r4, #32]
 8001d02:	4628      	mov	r0, r5
 8001d04:	47b0      	blx	r6
 8001d06:	1c43      	adds	r3, r0, #1
 8001d08:	89a3      	ldrh	r3, [r4, #12]
 8001d0a:	d106      	bne.n	8001d1a <__sflush_r+0x62>
 8001d0c:	6829      	ldr	r1, [r5, #0]
 8001d0e:	291d      	cmp	r1, #29
 8001d10:	d82b      	bhi.n	8001d6a <__sflush_r+0xb2>
 8001d12:	4a2a      	ldr	r2, [pc, #168]	@ (8001dbc <__sflush_r+0x104>)
 8001d14:	410a      	asrs	r2, r1
 8001d16:	07d6      	lsls	r6, r2, #31
 8001d18:	d427      	bmi.n	8001d6a <__sflush_r+0xb2>
 8001d1a:	2200      	movs	r2, #0
 8001d1c:	6062      	str	r2, [r4, #4]
 8001d1e:	04d9      	lsls	r1, r3, #19
 8001d20:	6922      	ldr	r2, [r4, #16]
 8001d22:	6022      	str	r2, [r4, #0]
 8001d24:	d504      	bpl.n	8001d30 <__sflush_r+0x78>
 8001d26:	1c42      	adds	r2, r0, #1
 8001d28:	d101      	bne.n	8001d2e <__sflush_r+0x76>
 8001d2a:	682b      	ldr	r3, [r5, #0]
 8001d2c:	b903      	cbnz	r3, 8001d30 <__sflush_r+0x78>
 8001d2e:	6560      	str	r0, [r4, #84]	@ 0x54
 8001d30:	6b61      	ldr	r1, [r4, #52]	@ 0x34
 8001d32:	602f      	str	r7, [r5, #0]
 8001d34:	b1b9      	cbz	r1, 8001d66 <__sflush_r+0xae>
 8001d36:	f104 0344 	add.w	r3, r4, #68	@ 0x44
 8001d3a:	4299      	cmp	r1, r3
 8001d3c:	d002      	beq.n	8001d44 <__sflush_r+0x8c>
 8001d3e:	4628      	mov	r0, r5
 8001d40:	f7ff ff68 	bl	8001c14 <_free_r>
 8001d44:	2300      	movs	r3, #0
 8001d46:	6363      	str	r3, [r4, #52]	@ 0x34
 8001d48:	e00d      	b.n	8001d66 <__sflush_r+0xae>
 8001d4a:	2301      	movs	r3, #1
 8001d4c:	4628      	mov	r0, r5
 8001d4e:	47b0      	blx	r6
 8001d50:	4602      	mov	r2, r0
 8001d52:	1c50      	adds	r0, r2, #1
 8001d54:	d1c9      	bne.n	8001cea <__sflush_r+0x32>
 8001d56:	682b      	ldr	r3, [r5, #0]
 8001d58:	2b00      	cmp	r3, #0
 8001d5a:	d0c6      	beq.n	8001cea <__sflush_r+0x32>
 8001d5c:	2b1d      	cmp	r3, #29
 8001d5e:	d001      	beq.n	8001d64 <__sflush_r+0xac>
 8001d60:	2b16      	cmp	r3, #22
 8001d62:	d11e      	bne.n	8001da2 <__sflush_r+0xea>
 8001d64:	602f      	str	r7, [r5, #0]
 8001d66:	2000      	movs	r0, #0
 8001d68:	e022      	b.n	8001db0 <__sflush_r+0xf8>
 8001d6a:	f043 0340 	orr.w	r3, r3, #64	@ 0x40
 8001d6e:	b21b      	sxth	r3, r3
 8001d70:	e01b      	b.n	8001daa <__sflush_r+0xf2>
 8001d72:	690f      	ldr	r7, [r1, #16]
 8001d74:	2f00      	cmp	r7, #0
 8001d76:	d0f6      	beq.n	8001d66 <__sflush_r+0xae>
 8001d78:	0793      	lsls	r3, r2, #30
 8001d7a:	680e      	ldr	r6, [r1, #0]
 8001d7c:	bf08      	it	eq
 8001d7e:	694b      	ldreq	r3, [r1, #20]
 8001d80:	600f      	str	r7, [r1, #0]
 8001d82:	bf18      	it	ne
 8001d84:	2300      	movne	r3, #0
 8001d86:	eba6 0807 	sub.w	r8, r6, r7
 8001d8a:	608b      	str	r3, [r1, #8]
 8001d8c:	f1b8 0f00 	cmp.w	r8, #0
 8001d90:	dde9      	ble.n	8001d66 <__sflush_r+0xae>
 8001d92:	6a21      	ldr	r1, [r4, #32]
 8001d94:	6aa6      	ldr	r6, [r4, #40]	@ 0x28
 8001d96:	4643      	mov	r3, r8
 8001d98:	463a      	mov	r2, r7
 8001d9a:	4628      	mov	r0, r5
 8001d9c:	47b0      	blx	r6
 8001d9e:	2800      	cmp	r0, #0
 8001da0:	dc08      	bgt.n	8001db4 <__sflush_r+0xfc>
 8001da2:	f9b4 300c 	ldrsh.w	r3, [r4, #12]
 8001da6:	f043 0340 	orr.w	r3, r3, #64	@ 0x40
 8001daa:	81a3      	strh	r3, [r4, #12]
 8001dac:	f04f 30ff 	mov.w	r0, #4294967295	@ 0xffffffff
 8001db0:	e8bd 81f0 	ldmia.w	sp!, {r4, r5, r6, r7, r8, pc}
 8001db4:	4407      	add	r7, r0
 8001db6:	eba8 0800 	sub.w	r8, r8, r0
 8001dba:	e7e7      	b.n	8001d8c <__sflush_r+0xd4>
 8001dbc:	dfbffffe 	.word	0xdfbffffe

08001dc0 <_fflush_r>:
 8001dc0:	b538      	push	{r3, r4, r5, lr}
 8001dc2:	690b      	ldr	r3, [r1, #16]
 8001dc4:	4605      	mov	r5, r0
 8001dc6:	460c      	mov	r4, r1
 8001dc8:	b913      	cbnz	r3, 8001dd0 <_fflush_r+0x10>
 8001dca:	2500      	movs	r5, #0
 8001dcc:	4628      	mov	r0, r5
 8001dce:	bd38      	pop	{r3, r4, r5, pc}
 8001dd0:	b118      	cbz	r0, 8001dda <_fflush_r+0x1a>
 8001dd2:	6a03      	ldr	r3, [r0, #32]
 8001dd4:	b90b      	cbnz	r3, 8001dda <_fflush_r+0x1a>
 8001dd6:	f7ff fd2b 	bl	8001830 <__sinit>
 8001dda:	f9b4 300c 	ldrsh.w	r3, [r4, #12]
 8001dde:	2b00      	cmp	r3, #0
 8001de0:	d0f3      	beq.n	8001dca <_fflush_r+0xa>
 8001de2:	6e62      	ldr	r2, [r4, #100]	@ 0x64
 8001de4:	07d0      	lsls	r0, r2, #31
 8001de6:	d404      	bmi.n	8001df2 <_fflush_r+0x32>
 8001de8:	0599      	lsls	r1, r3, #22
 8001dea:	d402      	bmi.n	8001df2 <_fflush_r+0x32>
 8001dec:	6da0      	ldr	r0, [r4, #88]	@ 0x58
 8001dee:	f7ff fef0 	bl	8001bd2 <__retarget_lock_acquire_recursive>
 8001df2:	4628      	mov	r0, r5
 8001df4:	4621      	mov	r1, r4
 8001df6:	f7ff ff5f 	bl	8001cb8 <__sflush_r>
 8001dfa:	6e63      	ldr	r3, [r4, #100]	@ 0x64
 8001dfc:	07da      	lsls	r2, r3, #31
 8001dfe:	4605      	mov	r5, r0
 8001e00:	d4e4      	bmi.n	8001dcc <_fflush_r+0xc>
 8001e02:	89a3      	ldrh	r3, [r4, #12]
 8001e04:	059b      	lsls	r3, r3, #22
 8001e06:	d4e1      	bmi.n	8001dcc <_fflush_r+0xc>
 8001e08:	6da0      	ldr	r0, [r4, #88]	@ 0x58
 8001e0a:	f7ff fee3 	bl	8001bd4 <__retarget_lock_release_recursive>
 8001e0e:	e7dd      	b.n	8001dcc <_fflush_r+0xc>

08001e10 <fiprintf>:
 8001e10:	b40e      	push	{r1, r2, r3}
 8001e12:	b503      	push	{r0, r1, lr}
 8001e14:	4601      	mov	r1, r0
 8001e16:	ab03      	add	r3, sp, #12
 8001e18:	4805      	ldr	r0, [pc, #20]	@ (8001e30 <fiprintf+0x20>)
 8001e1a:	f853 2b04 	ldr.w	r2, [r3], #4
 8001e1e:	6800      	ldr	r0, [r0, #0]
 8001e20:	9301      	str	r3, [sp, #4]
 8001e22:	f000 f8bb 	bl	8001f9c <_vfiprintf_r>
 8001e26:	b002      	add	sp, #8
 8001e28:	f85d eb04 	ldr.w	lr, [sp], #4
 8001e2c:	b003      	add	sp, #12
 8001e2e:	4770      	bx	lr
 8001e30:	20000018 	.word	0x20000018

08001e34 <__swhatbuf_r>:
 8001e34:	b570      	push	{r4, r5, r6, lr}
 8001e36:	460c      	mov	r4, r1
 8001e38:	f9b1 100e 	ldrsh.w	r1, [r1, #14]
 8001e3c:	2900      	cmp	r1, #0
 8001e3e:	b096      	sub	sp, #88	@ 0x58
 8001e40:	4615      	mov	r5, r2
 8001e42:	461e      	mov	r6, r3
 8001e44:	da0d      	bge.n	8001e62 <__swhatbuf_r+0x2e>
 8001e46:	89a3      	ldrh	r3, [r4, #12]
 8001e48:	f013 0f80 	tst.w	r3, #128	@ 0x80
 8001e4c:	f04f 0100 	mov.w	r1, #0
 8001e50:	bf14      	ite	ne
 8001e52:	2340      	movne	r3, #64	@ 0x40
 8001e54:	f44f 6380 	moveq.w	r3, #1024	@ 0x400
 8001e58:	2000      	movs	r0, #0
 8001e5a:	6031      	str	r1, [r6, #0]
 8001e5c:	602b      	str	r3, [r5, #0]
 8001e5e:	b016      	add	sp, #88	@ 0x58
 8001e60:	bd70      	pop	{r4, r5, r6, pc}
 8001e62:	466a      	mov	r2, sp
 8001e64:	f000 f848 	bl	8001ef8 <_fstat_r>
 8001e68:	2800      	cmp	r0, #0
 8001e6a:	dbec      	blt.n	8001e46 <__swhatbuf_r+0x12>
 8001e6c:	9901      	ldr	r1, [sp, #4]
 8001e6e:	f401 4170 	and.w	r1, r1, #61440	@ 0xf000
 8001e72:	f5a1 5300 	sub.w	r3, r1, #8192	@ 0x2000
 8001e76:	4259      	negs	r1, r3
 8001e78:	4159      	adcs	r1, r3
 8001e7a:	f44f 6380 	mov.w	r3, #1024	@ 0x400
 8001e7e:	e7eb      	b.n	8001e58 <__swhatbuf_r+0x24>

08001e80 <__smakebuf_r>:
 8001e80:	898b      	ldrh	r3, [r1, #12]
 8001e82:	b5f7      	push	{r0, r1, r2, r4, r5, r6, r7, lr}
 8001e84:	079d      	lsls	r5, r3, #30
 8001e86:	4606      	mov	r6, r0
 8001e88:	460c      	mov	r4, r1
 8001e8a:	d507      	bpl.n	8001e9c <__smakebuf_r+0x1c>
 8001e8c:	f104 0347 	add.w	r3, r4, #71	@ 0x47
 8001e90:	6023      	str	r3, [r4, #0]
 8001e92:	6123      	str	r3, [r4, #16]
 8001e94:	2301      	movs	r3, #1
 8001e96:	6163      	str	r3, [r4, #20]
 8001e98:	b003      	add	sp, #12
 8001e9a:	bdf0      	pop	{r4, r5, r6, r7, pc}
 8001e9c:	ab01      	add	r3, sp, #4
 8001e9e:	466a      	mov	r2, sp
 8001ea0:	f7ff ffc8 	bl	8001e34 <__swhatbuf_r>
 8001ea4:	9f00      	ldr	r7, [sp, #0]
 8001ea6:	4605      	mov	r5, r0
 8001ea8:	4639      	mov	r1, r7
 8001eaa:	4630      	mov	r0, r6
 8001eac:	f7ff fb6a 	bl	8001584 <_malloc_r>
 8001eb0:	b948      	cbnz	r0, 8001ec6 <__smakebuf_r+0x46>
 8001eb2:	f9b4 300c 	ldrsh.w	r3, [r4, #12]
 8001eb6:	059a      	lsls	r2, r3, #22
 8001eb8:	d4ee      	bmi.n	8001e98 <__smakebuf_r+0x18>
 8001eba:	f023 0303 	bic.w	r3, r3, #3
 8001ebe:	f043 0302 	orr.w	r3, r3, #2
 8001ec2:	81a3      	strh	r3, [r4, #12]
 8001ec4:	e7e2      	b.n	8001e8c <__smakebuf_r+0xc>
 8001ec6:	89a3      	ldrh	r3, [r4, #12]
 8001ec8:	6020      	str	r0, [r4, #0]
 8001eca:	f043 0380 	orr.w	r3, r3, #128	@ 0x80
 8001ece:	81a3      	strh	r3, [r4, #12]
 8001ed0:	9b01      	ldr	r3, [sp, #4]
 8001ed2:	e9c4 0704 	strd	r0, r7, [r4, #16]
 8001ed6:	b15b      	cbz	r3, 8001ef0 <__smakebuf_r+0x70>
 8001ed8:	f9b4 100e 	ldrsh.w	r1, [r4, #14]
 8001edc:	4630      	mov	r0, r6
 8001ede:	f000 f81d 	bl	8001f1c <_isatty_r>
 8001ee2:	b128      	cbz	r0, 8001ef0 <__smakebuf_r+0x70>
 8001ee4:	89a3      	ldrh	r3, [r4, #12]
 8001ee6:	f023 0303 	bic.w	r3, r3, #3
 8001eea:	f043 0301 	orr.w	r3, r3, #1
 8001eee:	81a3      	strh	r3, [r4, #12]
 8001ef0:	89a3      	ldrh	r3, [r4, #12]
 8001ef2:	431d      	orrs	r5, r3
 8001ef4:	81a5      	strh	r5, [r4, #12]
 8001ef6:	e7cf      	b.n	8001e98 <__smakebuf_r+0x18>

08001ef8 <_fstat_r>:
 8001ef8:	b538      	push	{r3, r4, r5, lr}
 8001efa:	4d07      	ldr	r5, [pc, #28]	@ (8001f18 <_fstat_r+0x20>)
 8001efc:	2300      	movs	r3, #0
 8001efe:	4604      	mov	r4, r0
 8001f00:	4608      	mov	r0, r1
 8001f02:	4611      	mov	r1, r2
 8001f04:	602b      	str	r3, [r5, #0]
 8001f06:	f7fe ff36 	bl	8000d76 <_fstat>
 8001f0a:	1c43      	adds	r3, r0, #1
 8001f0c:	d102      	bne.n	8001f14 <_fstat_r+0x1c>
 8001f0e:	682b      	ldr	r3, [r5, #0]
 8001f10:	b103      	cbz	r3, 8001f14 <_fstat_r+0x1c>
 8001f12:	6023      	str	r3, [r4, #0]
 8001f14:	bd38      	pop	{r3, r4, r5, pc}
 8001f16:	bf00      	nop
 8001f18:	20000370 	.word	0x20000370

08001f1c <_isatty_r>:
 8001f1c:	b538      	push	{r3, r4, r5, lr}
 8001f1e:	4d06      	ldr	r5, [pc, #24]	@ (8001f38 <_isatty_r+0x1c>)
 8001f20:	2300      	movs	r3, #0
 8001f22:	4604      	mov	r4, r0
 8001f24:	4608      	mov	r0, r1
 8001f26:	602b      	str	r3, [r5, #0]
 8001f28:	f7fe ff2a 	bl	8000d80 <_isatty>
 8001f2c:	1c43      	adds	r3, r0, #1
 8001f2e:	d102      	bne.n	8001f36 <_isatty_r+0x1a>
 8001f30:	682b      	ldr	r3, [r5, #0]
 8001f32:	b103      	cbz	r3, 8001f36 <_isatty_r+0x1a>
 8001f34:	6023      	str	r3, [r4, #0]
 8001f36:	bd38      	pop	{r3, r4, r5, pc}
 8001f38:	20000370 	.word	0x20000370

08001f3c <abort>:
 8001f3c:	b508      	push	{r3, lr}
 8001f3e:	2006      	movs	r0, #6
 8001f40:	f000 fafa 	bl	8002538 <raise>
 8001f44:	2001      	movs	r0, #1
 8001f46:	f7fe fef1 	bl	8000d2c <_exit>

08001f4a <__sfputc_r>:
 8001f4a:	6893      	ldr	r3, [r2, #8]
 8001f4c:	3b01      	subs	r3, #1
 8001f4e:	2b00      	cmp	r3, #0
 8001f50:	b410      	push	{r4}
 8001f52:	6093      	str	r3, [r2, #8]
 8001f54:	da08      	bge.n	8001f68 <__sfputc_r+0x1e>
 8001f56:	6994      	ldr	r4, [r2, #24]
 8001f58:	42a3      	cmp	r3, r4
 8001f5a:	db01      	blt.n	8001f60 <__sfputc_r+0x16>
 8001f5c:	290a      	cmp	r1, #10
 8001f5e:	d103      	bne.n	8001f68 <__sfputc_r+0x1e>
 8001f60:	f85d 4b04 	ldr.w	r4, [sp], #4
 8001f64:	f7ff bd3b 	b.w	80019de <__swbuf_r>
 8001f68:	6813      	ldr	r3, [r2, #0]
 8001f6a:	1c58      	adds	r0, r3, #1
 8001f6c:	6010      	str	r0, [r2, #0]
 8001f6e:	7019      	strb	r1, [r3, #0]
 8001f70:	4608      	mov	r0, r1
 8001f72:	f85d 4b04 	ldr.w	r4, [sp], #4
 8001f76:	4770      	bx	lr

08001f78 <__sfputs_r>:
 8001f78:	b5f8      	push	{r3, r4, r5, r6, r7, lr}
 8001f7a:	4606      	mov	r6, r0
 8001f7c:	460f      	mov	r7, r1
 8001f7e:	4614      	mov	r4, r2
 8001f80:	18d5      	adds	r5, r2, r3
 8001f82:	42ac      	cmp	r4, r5
 8001f84:	d101      	bne.n	8001f8a <__sfputs_r+0x12>
 8001f86:	2000      	movs	r0, #0
 8001f88:	e007      	b.n	8001f9a <__sfputs_r+0x22>
 8001f8a:	f814 1b01 	ldrb.w	r1, [r4], #1
 8001f8e:	463a      	mov	r2, r7
 8001f90:	4630      	mov	r0, r6
 8001f92:	f7ff ffda 	bl	8001f4a <__sfputc_r>
 8001f96:	1c43      	adds	r3, r0, #1
 8001f98:	d1f3      	bne.n	8001f82 <__sfputs_r+0xa>
 8001f9a:	bdf8      	pop	{r3, r4, r5, r6, r7, pc}

08001f9c <_vfiprintf_r>:
 8001f9c:	e92d 4ff0 	stmdb	sp!, {r4, r5, r6, r7, r8, r9, sl, fp, lr}
 8001fa0:	460d      	mov	r5, r1
 8001fa2:	b09d      	sub	sp, #116	@ 0x74
 8001fa4:	4614      	mov	r4, r2
 8001fa6:	4698      	mov	r8, r3
 8001fa8:	4606      	mov	r6, r0
 8001faa:	b118      	cbz	r0, 8001fb4 <_vfiprintf_r+0x18>
 8001fac:	6a03      	ldr	r3, [r0, #32]
 8001fae:	b90b      	cbnz	r3, 8001fb4 <_vfiprintf_r+0x18>
 8001fb0:	f7ff fc3e 	bl	8001830 <__sinit>
 8001fb4:	6e6b      	ldr	r3, [r5, #100]	@ 0x64
 8001fb6:	07d9      	lsls	r1, r3, #31
 8001fb8:	d405      	bmi.n	8001fc6 <_vfiprintf_r+0x2a>
 8001fba:	89ab      	ldrh	r3, [r5, #12]
 8001fbc:	059a      	lsls	r2, r3, #22
 8001fbe:	d402      	bmi.n	8001fc6 <_vfiprintf_r+0x2a>
 8001fc0:	6da8      	ldr	r0, [r5, #88]	@ 0x58
 8001fc2:	f7ff fe06 	bl	8001bd2 <__retarget_lock_acquire_recursive>
 8001fc6:	89ab      	ldrh	r3, [r5, #12]
 8001fc8:	071b      	lsls	r3, r3, #28
 8001fca:	d501      	bpl.n	8001fd0 <_vfiprintf_r+0x34>
 8001fcc:	692b      	ldr	r3, [r5, #16]
 8001fce:	b99b      	cbnz	r3, 8001ff8 <_vfiprintf_r+0x5c>
 8001fd0:	4629      	mov	r1, r5
 8001fd2:	4630      	mov	r0, r6
 8001fd4:	f7ff fd42 	bl	8001a5c <__swsetup_r>
 8001fd8:	b170      	cbz	r0, 8001ff8 <_vfiprintf_r+0x5c>
 8001fda:	6e6b      	ldr	r3, [r5, #100]	@ 0x64
 8001fdc:	07dc      	lsls	r4, r3, #31
 8001fde:	d504      	bpl.n	8001fea <_vfiprintf_r+0x4e>
 8001fe0:	f04f 30ff 	mov.w	r0, #4294967295	@ 0xffffffff
 8001fe4:	b01d      	add	sp, #116	@ 0x74
 8001fe6:	e8bd 8ff0 	ldmia.w	sp!, {r4, r5, r6, r7, r8, r9, sl, fp, pc}
 8001fea:	89ab      	ldrh	r3, [r5, #12]
 8001fec:	0598      	lsls	r0, r3, #22
 8001fee:	d4f7      	bmi.n	8001fe0 <_vfiprintf_r+0x44>
 8001ff0:	6da8      	ldr	r0, [r5, #88]	@ 0x58
 8001ff2:	f7ff fdef 	bl	8001bd4 <__retarget_lock_release_recursive>
 8001ff6:	e7f3      	b.n	8001fe0 <_vfiprintf_r+0x44>
 8001ff8:	2300      	movs	r3, #0
 8001ffa:	9309      	str	r3, [sp, #36]	@ 0x24
 8001ffc:	2320      	movs	r3, #32
 8001ffe:	f88d 3029 	strb.w	r3, [sp, #41]	@ 0x29
 8002002:	f8cd 800c 	str.w	r8, [sp, #12]
 8002006:	2330      	movs	r3, #48	@ 0x30
 8002008:	f8df 81ac 	ldr.w	r8, [pc, #428]	@ 80021b8 <_vfiprintf_r+0x21c>
 800200c:	f88d 302a 	strb.w	r3, [sp, #42]	@ 0x2a
 8002010:	f04f 0901 	mov.w	r9, #1
 8002014:	4623      	mov	r3, r4
 8002016:	469a      	mov	sl, r3
 8002018:	f813 2b01 	ldrb.w	r2, [r3], #1
 800201c:	b10a      	cbz	r2, 8002022 <_vfiprintf_r+0x86>
 800201e:	2a25      	cmp	r2, #37	@ 0x25
 8002020:	d1f9      	bne.n	8002016 <_vfiprintf_r+0x7a>
 8002022:	ebba 0b04 	subs.w	fp, sl, r4
 8002026:	d00b      	beq.n	8002040 <_vfiprintf_r+0xa4>
 8002028:	465b      	mov	r3, fp
 800202a:	4622      	mov	r2, r4
 800202c:	4629      	mov	r1, r5
 800202e:	4630      	mov	r0, r6
 8002030:	f7ff ffa2 	bl	8001f78 <__sfputs_r>
 8002034:	3001      	adds	r0, #1
 8002036:	f000 80a7 	beq.w	8002188 <_vfiprintf_r+0x1ec>
 800203a:	9a09      	ldr	r2, [sp, #36]	@ 0x24
 800203c:	445a      	add	r2, fp
 800203e:	9209      	str	r2, [sp, #36]	@ 0x24
 8002040:	f89a 3000 	ldrb.w	r3, [sl]
 8002044:	2b00      	cmp	r3, #0
 8002046:	f000 809f 	beq.w	8002188 <_vfiprintf_r+0x1ec>
 800204a:	2300      	movs	r3, #0
 800204c:	f04f 32ff 	mov.w	r2, #4294967295	@ 0xffffffff
 8002050:	e9cd 2305 	strd	r2, r3, [sp, #20]
 8002054:	f10a 0a01 	add.w	sl, sl, #1
 8002058:	9304      	str	r3, [sp, #16]
 800205a:	9307      	str	r3, [sp, #28]
 800205c:	f88d 3053 	strb.w	r3, [sp, #83]	@ 0x53
 8002060:	931a      	str	r3, [sp, #104]	@ 0x68
 8002062:	4654      	mov	r4, sl
 8002064:	2205      	movs	r2, #5
 8002066:	f814 1b01 	ldrb.w	r1, [r4], #1
 800206a:	4853      	ldr	r0, [pc, #332]	@ (80021b8 <_vfiprintf_r+0x21c>)
 800206c:	f7fe f900 	bl	8000270 <memchr>
 8002070:	9a04      	ldr	r2, [sp, #16]
 8002072:	b9d8      	cbnz	r0, 80020ac <_vfiprintf_r+0x110>
 8002074:	06d1      	lsls	r1, r2, #27
 8002076:	bf44      	itt	mi
 8002078:	2320      	movmi	r3, #32
 800207a:	f88d 3053 	strbmi.w	r3, [sp, #83]	@ 0x53
 800207e:	0713      	lsls	r3, r2, #28
 8002080:	bf44      	itt	mi
 8002082:	232b      	movmi	r3, #43	@ 0x2b
 8002084:	f88d 3053 	strbmi.w	r3, [sp, #83]	@ 0x53
 8002088:	f89a 3000 	ldrb.w	r3, [sl]
 800208c:	2b2a      	cmp	r3, #42	@ 0x2a
 800208e:	d015      	beq.n	80020bc <_vfiprintf_r+0x120>
 8002090:	9a07      	ldr	r2, [sp, #28]
 8002092:	4654      	mov	r4, sl
 8002094:	2000      	movs	r0, #0
 8002096:	f04f 0c0a 	mov.w	ip, #10
 800209a:	4621      	mov	r1, r4
 800209c:	f811 3b01 	ldrb.w	r3, [r1], #1
 80020a0:	3b30      	subs	r3, #48	@ 0x30
 80020a2:	2b09      	cmp	r3, #9
 80020a4:	d94b      	bls.n	800213e <_vfiprintf_r+0x1a2>
 80020a6:	b1b0      	cbz	r0, 80020d6 <_vfiprintf_r+0x13a>
 80020a8:	9207      	str	r2, [sp, #28]
 80020aa:	e014      	b.n	80020d6 <_vfiprintf_r+0x13a>
 80020ac:	eba0 0308 	sub.w	r3, r0, r8
 80020b0:	fa09 f303 	lsl.w	r3, r9, r3
 80020b4:	4313      	orrs	r3, r2
 80020b6:	9304      	str	r3, [sp, #16]
 80020b8:	46a2      	mov	sl, r4
 80020ba:	e7d2      	b.n	8002062 <_vfiprintf_r+0xc6>
 80020bc:	9b03      	ldr	r3, [sp, #12]
 80020be:	1d19      	adds	r1, r3, #4
 80020c0:	681b      	ldr	r3, [r3, #0]
 80020c2:	9103      	str	r1, [sp, #12]
 80020c4:	2b00      	cmp	r3, #0
 80020c6:	bfbb      	ittet	lt
 80020c8:	425b      	neglt	r3, r3
 80020ca:	f042 0202 	orrlt.w	r2, r2, #2
 80020ce:	9307      	strge	r3, [sp, #28]
 80020d0:	9307      	strlt	r3, [sp, #28]
 80020d2:	bfb8      	it	lt
 80020d4:	9204      	strlt	r2, [sp, #16]
 80020d6:	7823      	ldrb	r3, [r4, #0]
 80020d8:	2b2e      	cmp	r3, #46	@ 0x2e
 80020da:	d10a      	bne.n	80020f2 <_vfiprintf_r+0x156>
 80020dc:	7863      	ldrb	r3, [r4, #1]
 80020de:	2b2a      	cmp	r3, #42	@ 0x2a
 80020e0:	d132      	bne.n	8002148 <_vfiprintf_r+0x1ac>
 80020e2:	9b03      	ldr	r3, [sp, #12]
 80020e4:	1d1a      	adds	r2, r3, #4
 80020e6:	681b      	ldr	r3, [r3, #0]
 80020e8:	9203      	str	r2, [sp, #12]
 80020ea:	ea43 73e3 	orr.w	r3, r3, r3, asr #31
 80020ee:	3402      	adds	r4, #2
 80020f0:	9305      	str	r3, [sp, #20]
 80020f2:	f8df a0d4 	ldr.w	sl, [pc, #212]	@ 80021c8 <_vfiprintf_r+0x22c>
 80020f6:	7821      	ldrb	r1, [r4, #0]
 80020f8:	2203      	movs	r2, #3
 80020fa:	4650      	mov	r0, sl
 80020fc:	f7fe f8b8 	bl	8000270 <memchr>
 8002100:	b138      	cbz	r0, 8002112 <_vfiprintf_r+0x176>
 8002102:	9b04      	ldr	r3, [sp, #16]
 8002104:	eba0 000a 	sub.w	r0, r0, sl
 8002108:	2240      	movs	r2, #64	@ 0x40
 800210a:	4082      	lsls	r2, r0
 800210c:	4313      	orrs	r3, r2
 800210e:	3401      	adds	r4, #1
 8002110:	9304      	str	r3, [sp, #16]
 8002112:	f814 1b01 	ldrb.w	r1, [r4], #1
 8002116:	4829      	ldr	r0, [pc, #164]	@ (80021bc <_vfiprintf_r+0x220>)
 8002118:	f88d 1028 	strb.w	r1, [sp, #40]	@ 0x28
 800211c:	2206      	movs	r2, #6
 800211e:	f7fe f8a7 	bl	8000270 <memchr>
 8002122:	2800      	cmp	r0, #0
 8002124:	d03f      	beq.n	80021a6 <_vfiprintf_r+0x20a>
 8002126:	4b26      	ldr	r3, [pc, #152]	@ (80021c0 <_vfiprintf_r+0x224>)
 8002128:	bb1b      	cbnz	r3, 8002172 <_vfiprintf_r+0x1d6>
 800212a:	9b03      	ldr	r3, [sp, #12]
 800212c:	3307      	adds	r3, #7
 800212e:	f023 0307 	bic.w	r3, r3, #7
 8002132:	3308      	adds	r3, #8
 8002134:	9303      	str	r3, [sp, #12]
 8002136:	9b09      	ldr	r3, [sp, #36]	@ 0x24
 8002138:	443b      	add	r3, r7
 800213a:	9309      	str	r3, [sp, #36]	@ 0x24
 800213c:	e76a      	b.n	8002014 <_vfiprintf_r+0x78>
 800213e:	fb0c 3202 	mla	r2, ip, r2, r3
 8002142:	460c      	mov	r4, r1
 8002144:	2001      	movs	r0, #1
 8002146:	e7a8      	b.n	800209a <_vfiprintf_r+0xfe>
 8002148:	2300      	movs	r3, #0
 800214a:	3401      	adds	r4, #1
 800214c:	9305      	str	r3, [sp, #20]
 800214e:	4619      	mov	r1, r3
 8002150:	f04f 0c0a 	mov.w	ip, #10
 8002154:	4620      	mov	r0, r4
 8002156:	f810 2b01 	ldrb.w	r2, [r0], #1
 800215a:	3a30      	subs	r2, #48	@ 0x30
 800215c:	2a09      	cmp	r2, #9
 800215e:	d903      	bls.n	8002168 <_vfiprintf_r+0x1cc>
 8002160:	2b00      	cmp	r3, #0
 8002162:	d0c6      	beq.n	80020f2 <_vfiprintf_r+0x156>
 8002164:	9105      	str	r1, [sp, #20]
 8002166:	e7c4      	b.n	80020f2 <_vfiprintf_r+0x156>
 8002168:	fb0c 2101 	mla	r1, ip, r1, r2
 800216c:	4604      	mov	r4, r0
 800216e:	2301      	movs	r3, #1
 8002170:	e7f0      	b.n	8002154 <_vfiprintf_r+0x1b8>
 8002172:	ab03      	add	r3, sp, #12
 8002174:	9300      	str	r3, [sp, #0]
 8002176:	462a      	mov	r2, r5
 8002178:	4b12      	ldr	r3, [pc, #72]	@ (80021c4 <_vfiprintf_r+0x228>)
 800217a:	a904      	add	r1, sp, #16
 800217c:	4630      	mov	r0, r6
 800217e:	f3af 8000 	nop.w
 8002182:	4607      	mov	r7, r0
 8002184:	1c78      	adds	r0, r7, #1
 8002186:	d1d6      	bne.n	8002136 <_vfiprintf_r+0x19a>
 8002188:	6e6b      	ldr	r3, [r5, #100]	@ 0x64
 800218a:	07d9      	lsls	r1, r3, #31
 800218c:	d405      	bmi.n	800219a <_vfiprintf_r+0x1fe>
 800218e:	89ab      	ldrh	r3, [r5, #12]
 8002190:	059a      	lsls	r2, r3, #22
 8002192:	d402      	bmi.n	800219a <_vfiprintf_r+0x1fe>
 8002194:	6da8      	ldr	r0, [r5, #88]	@ 0x58
 8002196:	f7ff fd1d 	bl	8001bd4 <__retarget_lock_release_recursive>
 800219a:	89ab      	ldrh	r3, [r5, #12]
 800219c:	065b      	lsls	r3, r3, #25
 800219e:	f53f af1f 	bmi.w	8001fe0 <_vfiprintf_r+0x44>
 80021a2:	9809      	ldr	r0, [sp, #36]	@ 0x24
 80021a4:	e71e      	b.n	8001fe4 <_vfiprintf_r+0x48>
 80021a6:	ab03      	add	r3, sp, #12
 80021a8:	9300      	str	r3, [sp, #0]
 80021aa:	462a      	mov	r2, r5
 80021ac:	4b05      	ldr	r3, [pc, #20]	@ (80021c4 <_vfiprintf_r+0x228>)
 80021ae:	a904      	add	r1, sp, #16
 80021b0:	4630      	mov	r0, r6
 80021b2:	f000 f879 	bl	80022a8 <_printf_i>
 80021b6:	e7e4      	b.n	8002182 <_vfiprintf_r+0x1e6>
 80021b8:	0800266a 	.word	0x0800266a
 80021bc:	08002674 	.word	0x08002674
 80021c0:	00000000 	.word	0x00000000
 80021c4:	08001f79 	.word	0x08001f79
 80021c8:	08002670 	.word	0x08002670

080021cc <_printf_common>:
 80021cc:	e92d 47f0 	stmdb	sp!, {r4, r5, r6, r7, r8, r9, sl, lr}
 80021d0:	4616      	mov	r6, r2
 80021d2:	4698      	mov	r8, r3
 80021d4:	688a      	ldr	r2, [r1, #8]
 80021d6:	690b      	ldr	r3, [r1, #16]
 80021d8:	f8dd 9020 	ldr.w	r9, [sp, #32]
 80021dc:	4293      	cmp	r3, r2
 80021de:	bfb8      	it	lt
 80021e0:	4613      	movlt	r3, r2
 80021e2:	6033      	str	r3, [r6, #0]
 80021e4:	f891 2043 	ldrb.w	r2, [r1, #67]	@ 0x43
 80021e8:	4607      	mov	r7, r0
 80021ea:	460c      	mov	r4, r1
 80021ec:	b10a      	cbz	r2, 80021f2 <_printf_common+0x26>
 80021ee:	3301      	adds	r3, #1
 80021f0:	6033      	str	r3, [r6, #0]
 80021f2:	6823      	ldr	r3, [r4, #0]
 80021f4:	0699      	lsls	r1, r3, #26
 80021f6:	bf42      	ittt	mi
 80021f8:	6833      	ldrmi	r3, [r6, #0]
 80021fa:	3302      	addmi	r3, #2
 80021fc:	6033      	strmi	r3, [r6, #0]
 80021fe:	6825      	ldr	r5, [r4, #0]
 8002200:	f015 0506 	ands.w	r5, r5, #6
 8002204:	d106      	bne.n	8002214 <_printf_common+0x48>
 8002206:	f104 0a19 	add.w	sl, r4, #25
 800220a:	68e3      	ldr	r3, [r4, #12]
 800220c:	6832      	ldr	r2, [r6, #0]
 800220e:	1a9b      	subs	r3, r3, r2
 8002210:	42ab      	cmp	r3, r5
 8002212:	dc26      	bgt.n	8002262 <_printf_common+0x96>
 8002214:	f894 3043 	ldrb.w	r3, [r4, #67]	@ 0x43
 8002218:	6822      	ldr	r2, [r4, #0]
 800221a:	3b00      	subs	r3, #0
 800221c:	bf18      	it	ne
 800221e:	2301      	movne	r3, #1
 8002220:	0692      	lsls	r2, r2, #26
 8002222:	d42b      	bmi.n	800227c <_printf_common+0xb0>
 8002224:	f104 0243 	add.w	r2, r4, #67	@ 0x43
 8002228:	4641      	mov	r1, r8
 800222a:	4638      	mov	r0, r7
 800222c:	47c8      	blx	r9
 800222e:	3001      	adds	r0, #1
 8002230:	d01e      	beq.n	8002270 <_printf_common+0xa4>
 8002232:	6823      	ldr	r3, [r4, #0]
 8002234:	6922      	ldr	r2, [r4, #16]
 8002236:	f003 0306 	and.w	r3, r3, #6
 800223a:	2b04      	cmp	r3, #4
 800223c:	bf02      	ittt	eq
 800223e:	68e5      	ldreq	r5, [r4, #12]
 8002240:	6833      	ldreq	r3, [r6, #0]
 8002242:	1aed      	subeq	r5, r5, r3
 8002244:	68a3      	ldr	r3, [r4, #8]
 8002246:	bf0c      	ite	eq
 8002248:	ea25 75e5 	biceq.w	r5, r5, r5, asr #31
 800224c:	2500      	movne	r5, #0
 800224e:	4293      	cmp	r3, r2
 8002250:	bfc4      	itt	gt
 8002252:	1a9b      	subgt	r3, r3, r2
 8002254:	18ed      	addgt	r5, r5, r3
 8002256:	2600      	movs	r6, #0
 8002258:	341a      	adds	r4, #26
 800225a:	42b5      	cmp	r5, r6
 800225c:	d11a      	bne.n	8002294 <_printf_common+0xc8>
 800225e:	2000      	movs	r0, #0
 8002260:	e008      	b.n	8002274 <_printf_common+0xa8>
 8002262:	2301      	movs	r3, #1
 8002264:	4652      	mov	r2, sl
 8002266:	4641      	mov	r1, r8
 8002268:	4638      	mov	r0, r7
 800226a:	47c8      	blx	r9
 800226c:	3001      	adds	r0, #1
 800226e:	d103      	bne.n	8002278 <_printf_common+0xac>
 8002270:	f04f 30ff 	mov.w	r0, #4294967295	@ 0xffffffff
 8002274:	e8bd 87f0 	ldmia.w	sp!, {r4, r5, r6, r7, r8, r9, sl, pc}
 8002278:	3501      	adds	r5, #1
 800227a:	e7c6      	b.n	800220a <_printf_common+0x3e>
 800227c:	18e1      	adds	r1, r4, r3
 800227e:	1c5a      	adds	r2, r3, #1
 8002280:	2030      	movs	r0, #48	@ 0x30
 8002282:	f881 0043 	strb.w	r0, [r1, #67]	@ 0x43
 8002286:	4422      	add	r2, r4
 8002288:	f894 1045 	ldrb.w	r1, [r4, #69]	@ 0x45
 800228c:	f882 1043 	strb.w	r1, [r2, #67]	@ 0x43
 8002290:	3302      	adds	r3, #2
 8002292:	e7c7      	b.n	8002224 <_printf_common+0x58>
 8002294:	2301      	movs	r3, #1
 8002296:	4622      	mov	r2, r4
 8002298:	4641      	mov	r1, r8
 800229a:	4638      	mov	r0, r7
 800229c:	47c8      	blx	r9
 800229e:	3001      	adds	r0, #1
 80022a0:	d0e6      	beq.n	8002270 <_printf_common+0xa4>
 80022a2:	3601      	adds	r6, #1
 80022a4:	e7d9      	b.n	800225a <_printf_common+0x8e>
	...

080022a8 <_printf_i>:
 80022a8:	e92d 47ff 	stmdb	sp!, {r0, r1, r2, r3, r4, r5, r6, r7, r8, r9, sl, lr}
 80022ac:	7e0f      	ldrb	r7, [r1, #24]
 80022ae:	9e0c      	ldr	r6, [sp, #48]	@ 0x30
 80022b0:	2f78      	cmp	r7, #120	@ 0x78
 80022b2:	4691      	mov	r9, r2
 80022b4:	4680      	mov	r8, r0
 80022b6:	460c      	mov	r4, r1
 80022b8:	469a      	mov	sl, r3
 80022ba:	f101 0243 	add.w	r2, r1, #67	@ 0x43
 80022be:	d807      	bhi.n	80022d0 <_printf_i+0x28>
 80022c0:	2f62      	cmp	r7, #98	@ 0x62
 80022c2:	d80a      	bhi.n	80022da <_printf_i+0x32>
 80022c4:	2f00      	cmp	r7, #0
 80022c6:	f000 80d2 	beq.w	800246e <_printf_i+0x1c6>
 80022ca:	2f58      	cmp	r7, #88	@ 0x58
 80022cc:	f000 80b9 	beq.w	8002442 <_printf_i+0x19a>
 80022d0:	f104 0642 	add.w	r6, r4, #66	@ 0x42
 80022d4:	f884 7042 	strb.w	r7, [r4, #66]	@ 0x42
 80022d8:	e03a      	b.n	8002350 <_printf_i+0xa8>
 80022da:	f1a7 0363 	sub.w	r3, r7, #99	@ 0x63
 80022de:	2b15      	cmp	r3, #21
 80022e0:	d8f6      	bhi.n	80022d0 <_printf_i+0x28>
 80022e2:	a101      	add	r1, pc, #4	@ (adr r1, 80022e8 <_printf_i+0x40>)
 80022e4:	f851 f023 	ldr.w	pc, [r1, r3, lsl #2]
 80022e8:	08002341 	.word	0x08002341
 80022ec:	08002355 	.word	0x08002355
 80022f0:	080022d1 	.word	0x080022d1
 80022f4:	080022d1 	.word	0x080022d1
 80022f8:	080022d1 	.word	0x080022d1
 80022fc:	080022d1 	.word	0x080022d1
 8002300:	08002355 	.word	0x08002355
 8002304:	080022d1 	.word	0x080022d1
 8002308:	080022d1 	.word	0x080022d1
 800230c:	080022d1 	.word	0x080022d1
 8002310:	080022d1 	.word	0x080022d1
 8002314:	08002455 	.word	0x08002455
 8002318:	0800237f 	.word	0x0800237f
 800231c:	0800240f 	.word	0x0800240f
 8002320:	080022d1 	.word	0x080022d1
 8002324:	080022d1 	.word	0x080022d1
 8002328:	08002477 	.word	0x08002477
 800232c:	080022d1 	.word	0x080022d1
 8002330:	0800237f 	.word	0x0800237f
 8002334:	080022d1 	.word	0x080022d1
 8002338:	080022d1 	.word	0x080022d1
 800233c:	08002417 	.word	0x08002417
 8002340:	6833      	ldr	r3, [r6, #0]
 8002342:	1d1a      	adds	r2, r3, #4
 8002344:	681b      	ldr	r3, [r3, #0]
 8002346:	6032      	str	r2, [r6, #0]
 8002348:	f104 0642 	add.w	r6, r4, #66	@ 0x42
 800234c:	f884 3042 	strb.w	r3, [r4, #66]	@ 0x42
 8002350:	2301      	movs	r3, #1
 8002352:	e09d      	b.n	8002490 <_printf_i+0x1e8>
 8002354:	6833      	ldr	r3, [r6, #0]
 8002356:	6820      	ldr	r0, [r4, #0]
 8002358:	1d19      	adds	r1, r3, #4
 800235a:	6031      	str	r1, [r6, #0]
 800235c:	0606      	lsls	r6, r0, #24
 800235e:	d501      	bpl.n	8002364 <_printf_i+0xbc>
 8002360:	681d      	ldr	r5, [r3, #0]
 8002362:	e003      	b.n	800236c <_printf_i+0xc4>
 8002364:	0645      	lsls	r5, r0, #25
 8002366:	d5fb      	bpl.n	8002360 <_printf_i+0xb8>
 8002368:	f9b3 5000 	ldrsh.w	r5, [r3]
 800236c:	2d00      	cmp	r5, #0
 800236e:	da03      	bge.n	8002378 <_printf_i+0xd0>
 8002370:	232d      	movs	r3, #45	@ 0x2d
 8002372:	426d      	negs	r5, r5
 8002374:	f884 3043 	strb.w	r3, [r4, #67]	@ 0x43
 8002378:	4859      	ldr	r0, [pc, #356]	@ (80024e0 <_printf_i+0x238>)
 800237a:	230a      	movs	r3, #10
 800237c:	e011      	b.n	80023a2 <_printf_i+0xfa>
 800237e:	6821      	ldr	r1, [r4, #0]
 8002380:	6833      	ldr	r3, [r6, #0]
 8002382:	0608      	lsls	r0, r1, #24
 8002384:	f853 5b04 	ldr.w	r5, [r3], #4
 8002388:	d402      	bmi.n	8002390 <_printf_i+0xe8>
 800238a:	0649      	lsls	r1, r1, #25
 800238c:	bf48      	it	mi
 800238e:	b2ad      	uxthmi	r5, r5
 8002390:	2f6f      	cmp	r7, #111	@ 0x6f
 8002392:	4853      	ldr	r0, [pc, #332]	@ (80024e0 <_printf_i+0x238>)
 8002394:	6033      	str	r3, [r6, #0]
 8002396:	bf14      	ite	ne
 8002398:	230a      	movne	r3, #10
 800239a:	2308      	moveq	r3, #8
 800239c:	2100      	movs	r1, #0
 800239e:	f884 1043 	strb.w	r1, [r4, #67]	@ 0x43
 80023a2:	6866      	ldr	r6, [r4, #4]
 80023a4:	60a6      	str	r6, [r4, #8]
 80023a6:	2e00      	cmp	r6, #0
 80023a8:	bfa2      	ittt	ge
 80023aa:	6821      	ldrge	r1, [r4, #0]
 80023ac:	f021 0104 	bicge.w	r1, r1, #4
 80023b0:	6021      	strge	r1, [r4, #0]
 80023b2:	b90d      	cbnz	r5, 80023b8 <_printf_i+0x110>
 80023b4:	2e00      	cmp	r6, #0
 80023b6:	d04b      	beq.n	8002450 <_printf_i+0x1a8>
 80023b8:	4616      	mov	r6, r2
 80023ba:	fbb5 f1f3 	udiv	r1, r5, r3
 80023be:	fb03 5711 	mls	r7, r3, r1, r5
 80023c2:	5dc7      	ldrb	r7, [r0, r7]
 80023c4:	f806 7d01 	strb.w	r7, [r6, #-1]!
 80023c8:	462f      	mov	r7, r5
 80023ca:	42bb      	cmp	r3, r7
 80023cc:	460d      	mov	r5, r1
 80023ce:	d9f4      	bls.n	80023ba <_printf_i+0x112>
 80023d0:	2b08      	cmp	r3, #8
 80023d2:	d10b      	bne.n	80023ec <_printf_i+0x144>
 80023d4:	6823      	ldr	r3, [r4, #0]
 80023d6:	07df      	lsls	r7, r3, #31
 80023d8:	d508      	bpl.n	80023ec <_printf_i+0x144>
 80023da:	6923      	ldr	r3, [r4, #16]
 80023dc:	6861      	ldr	r1, [r4, #4]
 80023de:	4299      	cmp	r1, r3
 80023e0:	bfde      	ittt	le
 80023e2:	2330      	movle	r3, #48	@ 0x30
 80023e4:	f806 3c01 	strble.w	r3, [r6, #-1]
 80023e8:	f106 36ff 	addle.w	r6, r6, #4294967295	@ 0xffffffff
 80023ec:	1b92      	subs	r2, r2, r6
 80023ee:	6122      	str	r2, [r4, #16]
 80023f0:	f8cd a000 	str.w	sl, [sp]
 80023f4:	464b      	mov	r3, r9
 80023f6:	aa03      	add	r2, sp, #12
 80023f8:	4621      	mov	r1, r4
 80023fa:	4640      	mov	r0, r8
 80023fc:	f7ff fee6 	bl	80021cc <_printf_common>
 8002400:	3001      	adds	r0, #1
 8002402:	d14a      	bne.n	800249a <_printf_i+0x1f2>
 8002404:	f04f 30ff 	mov.w	r0, #4294967295	@ 0xffffffff
 8002408:	b004      	add	sp, #16
 800240a:	e8bd 87f0 	ldmia.w	sp!, {r4, r5, r6, r7, r8, r9, sl, pc}
 800240e:	6823      	ldr	r3, [r4, #0]
 8002410:	f043 0320 	orr.w	r3, r3, #32
 8002414:	6023      	str	r3, [r4, #0]
 8002416:	4833      	ldr	r0, [pc, #204]	@ (80024e4 <_printf_i+0x23c>)
 8002418:	2778      	movs	r7, #120	@ 0x78
 800241a:	f884 7045 	strb.w	r7, [r4, #69]	@ 0x45
 800241e:	6823      	ldr	r3, [r4, #0]
 8002420:	6831      	ldr	r1, [r6, #0]
 8002422:	061f      	lsls	r7, r3, #24
 8002424:	f851 5b04 	ldr.w	r5, [r1], #4
 8002428:	d402      	bmi.n	8002430 <_printf_i+0x188>
 800242a:	065f      	lsls	r7, r3, #25
 800242c:	bf48      	it	mi
 800242e:	b2ad      	uxthmi	r5, r5
 8002430:	6031      	str	r1, [r6, #0]
 8002432:	07d9      	lsls	r1, r3, #31
 8002434:	bf44      	itt	mi
 8002436:	f043 0320 	orrmi.w	r3, r3, #32
 800243a:	6023      	strmi	r3, [r4, #0]
 800243c:	b11d      	cbz	r5, 8002446 <_printf_i+0x19e>
 800243e:	2310      	movs	r3, #16
 8002440:	e7ac      	b.n	800239c <_printf_i+0xf4>
 8002442:	4827      	ldr	r0, [pc, #156]	@ (80024e0 <_printf_i+0x238>)
 8002444:	e7e9      	b.n	800241a <_printf_i+0x172>
 8002446:	6823      	ldr	r3, [r4, #0]
 8002448:	f023 0320 	bic.w	r3, r3, #32
 800244c:	6023      	str	r3, [r4, #0]
 800244e:	e7f6      	b.n	800243e <_printf_i+0x196>
 8002450:	4616      	mov	r6, r2
 8002452:	e7bd      	b.n	80023d0 <_printf_i+0x128>
 8002454:	6833      	ldr	r3, [r6, #0]
 8002456:	6825      	ldr	r5, [r4, #0]
 8002458:	6961      	ldr	r1, [r4, #20]
 800245a:	1d18      	adds	r0, r3, #4
 800245c:	6030      	str	r0, [r6, #0]
 800245e:	062e      	lsls	r6, r5, #24
 8002460:	681b      	ldr	r3, [r3, #0]
 8002462:	d501      	bpl.n	8002468 <_printf_i+0x1c0>
 8002464:	6019      	str	r1, [r3, #0]
 8002466:	e002      	b.n	800246e <_printf_i+0x1c6>
 8002468:	0668      	lsls	r0, r5, #25
 800246a:	d5fb      	bpl.n	8002464 <_printf_i+0x1bc>
 800246c:	8019      	strh	r1, [r3, #0]
 800246e:	2300      	movs	r3, #0
 8002470:	6123      	str	r3, [r4, #16]
 8002472:	4616      	mov	r6, r2
 8002474:	e7bc      	b.n	80023f0 <_printf_i+0x148>
 8002476:	6833      	ldr	r3, [r6, #0]
 8002478:	1d1a      	adds	r2, r3, #4
 800247a:	6032      	str	r2, [r6, #0]
 800247c:	681e      	ldr	r6, [r3, #0]
 800247e:	6862      	ldr	r2, [r4, #4]
 8002480:	2100      	movs	r1, #0
 8002482:	4630      	mov	r0, r6
 8002484:	f7fd fef4 	bl	8000270 <memchr>
 8002488:	b108      	cbz	r0, 800248e <_printf_i+0x1e6>
 800248a:	1b80      	subs	r0, r0, r6
 800248c:	6060      	str	r0, [r4, #4]
 800248e:	6863      	ldr	r3, [r4, #4]
 8002490:	6123      	str	r3, [r4, #16]
 8002492:	2300      	movs	r3, #0
 8002494:	f884 3043 	strb.w	r3, [r4, #67]	@ 0x43
 8002498:	e7aa      	b.n	80023f0 <_printf_i+0x148>
 800249a:	6923      	ldr	r3, [r4, #16]
 800249c:	4632      	mov	r2, r6
 800249e:	4649      	mov	r1, r9
 80024a0:	4640      	mov	r0, r8
 80024a2:	47d0      	blx	sl
 80024a4:	3001      	adds	r0, #1
 80024a6:	d0ad      	beq.n	8002404 <_printf_i+0x15c>
 80024a8:	6823      	ldr	r3, [r4, #0]
 80024aa:	079b      	lsls	r3, r3, #30
 80024ac:	d413      	bmi.n	80024d6 <_printf_i+0x22e>
 80024ae:	68e0      	ldr	r0, [r4, #12]
 80024b0:	9b03      	ldr	r3, [sp, #12]
 80024b2:	4298      	cmp	r0, r3
 80024b4:	bfb8      	it	lt
 80024b6:	4618      	movlt	r0, r3
 80024b8:	e7a6      	b.n	8002408 <_printf_i+0x160>
 80024ba:	2301      	movs	r3, #1
 80024bc:	4632      	mov	r2, r6
 80024be:	4649      	mov	r1, r9
 80024c0:	4640      	mov	r0, r8
 80024c2:	47d0      	blx	sl
 80024c4:	3001      	adds	r0, #1
 80024c6:	d09d      	beq.n	8002404 <_printf_i+0x15c>
 80024c8:	3501      	adds	r5, #1
 80024ca:	68e3      	ldr	r3, [r4, #12]
 80024cc:	9903      	ldr	r1, [sp, #12]
 80024ce:	1a5b      	subs	r3, r3, r1
 80024d0:	42ab      	cmp	r3, r5
 80024d2:	dcf2      	bgt.n	80024ba <_printf_i+0x212>
 80024d4:	e7eb      	b.n	80024ae <_printf_i+0x206>
 80024d6:	2500      	movs	r5, #0
 80024d8:	f104 0619 	add.w	r6, r4, #25
 80024dc:	e7f5      	b.n	80024ca <_printf_i+0x222>
 80024de:	bf00      	nop
 80024e0:	0800267b 	.word	0x0800267b
 80024e4:	0800268c 	.word	0x0800268c

080024e8 <_raise_r>:
 80024e8:	291f      	cmp	r1, #31
 80024ea:	b538      	push	{r3, r4, r5, lr}
 80024ec:	4605      	mov	r5, r0
 80024ee:	460c      	mov	r4, r1
 80024f0:	d904      	bls.n	80024fc <_raise_r+0x14>
 80024f2:	2316      	movs	r3, #22
 80024f4:	6003      	str	r3, [r0, #0]
 80024f6:	f04f 30ff 	mov.w	r0, #4294967295	@ 0xffffffff
 80024fa:	bd38      	pop	{r3, r4, r5, pc}
 80024fc:	6bc2      	ldr	r2, [r0, #60]	@ 0x3c
 80024fe:	b112      	cbz	r2, 8002506 <_raise_r+0x1e>
 8002500:	f852 3021 	ldr.w	r3, [r2, r1, lsl #2]
 8002504:	b94b      	cbnz	r3, 800251a <_raise_r+0x32>
 8002506:	4628      	mov	r0, r5
 8002508:	f000 f830 	bl	800256c <_getpid_r>
 800250c:	4622      	mov	r2, r4
 800250e:	4601      	mov	r1, r0
 8002510:	4628      	mov	r0, r5
 8002512:	e8bd 4038 	ldmia.w	sp!, {r3, r4, r5, lr}
 8002516:	f000 b817 	b.w	8002548 <_kill_r>
 800251a:	2b01      	cmp	r3, #1
 800251c:	d00a      	beq.n	8002534 <_raise_r+0x4c>
 800251e:	1c59      	adds	r1, r3, #1
 8002520:	d103      	bne.n	800252a <_raise_r+0x42>
 8002522:	2316      	movs	r3, #22
 8002524:	6003      	str	r3, [r0, #0]
 8002526:	2001      	movs	r0, #1
 8002528:	e7e7      	b.n	80024fa <_raise_r+0x12>
 800252a:	2100      	movs	r1, #0
 800252c:	f842 1024 	str.w	r1, [r2, r4, lsl #2]
 8002530:	4620      	mov	r0, r4
 8002532:	4798      	blx	r3
 8002534:	2000      	movs	r0, #0
 8002536:	e7e0      	b.n	80024fa <_raise_r+0x12>

08002538 <raise>:
 8002538:	4b02      	ldr	r3, [pc, #8]	@ (8002544 <raise+0xc>)
 800253a:	4601      	mov	r1, r0
 800253c:	6818      	ldr	r0, [r3, #0]
 800253e:	f7ff bfd3 	b.w	80024e8 <_raise_r>
 8002542:	bf00      	nop
 8002544:	20000018 	.word	0x20000018

08002548 <_kill_r>:
 8002548:	b538      	push	{r3, r4, r5, lr}
 800254a:	4d07      	ldr	r5, [pc, #28]	@ (8002568 <_kill_r+0x20>)
 800254c:	2300      	movs	r3, #0
 800254e:	4604      	mov	r4, r0
 8002550:	4608      	mov	r0, r1
 8002552:	4611      	mov	r1, r2
 8002554:	602b      	str	r3, [r5, #0]
 8002556:	f7fe fbe1 	bl	8000d1c <_kill>
 800255a:	1c43      	adds	r3, r0, #1
 800255c:	d102      	bne.n	8002564 <_kill_r+0x1c>
 800255e:	682b      	ldr	r3, [r5, #0]
 8002560:	b103      	cbz	r3, 8002564 <_kill_r+0x1c>
 8002562:	6023      	str	r3, [r4, #0]
 8002564:	bd38      	pop	{r3, r4, r5, pc}
 8002566:	bf00      	nop
 8002568:	20000370 	.word	0x20000370

0800256c <_getpid_r>:
 800256c:	f7fe bbd4 	b.w	8000d18 <_getpid>

08002570 <_init>:
 8002570:	b5f8      	push	{r3, r4, r5, r6, r7, lr}
 8002572:	bf00      	nop
 8002574:	bcf8      	pop	{r3, r4, r5, r6, r7}
 8002576:	bc08      	pop	{r3}
 8002578:	469e      	mov	lr, r3
 800257a:	4770      	bx	lr

0800257c <_fini>:
 800257c:	b5f8      	push	{r3, r4, r5, r6, r7, lr}
 800257e:	bf00      	nop
 8002580:	bcf8      	pop	{r3, r4, r5, r6, r7}
 8002582:	bc08      	pop	{r3}
 8002584:	469e      	mov	lr, r3
 8002586:	4770      	bx	lr
